

Microchip MPLAB XC8 Assembler V2.40 build 20220703182018 
                                                                                               Thu Apr 06 08:22:46 2023

Microchip MPLAB XC8 C Compiler v2.40 (Free license) build 20220703182018 Og1 
     1                           	processor	16F877A
     2                           	pagewidth 120
     3                           	opt	flic
     4                           	psect	idataCOMMON,global,class=CODE,delta=2,noexec
     5                           	psect	idataBANK0,global,class=CODE,delta=2,noexec
     6                           	psect	idataBANK1,global,class=CODE,delta=2,noexec
     7                           	psect	strings,global,class=STRING,delta=2,noexec
     8                           	psect	stringtext,global,reloc=256,class=STRCODE,delta=2,noexec
     9                           	psect	cinit,global,class=CODE,merge=1,delta=2
    10                           	psect	bssCOMMON,global,class=COMMON,space=1,delta=1,noexec
    11                           	psect	dataCOMMON,global,class=COMMON,space=1,delta=1,noexec
    12                           	psect	bssBANK0,global,class=BANK0,space=1,delta=1,noexec
    13                           	psect	dataBANK0,global,class=BANK0,space=1,delta=1,noexec
    14                           	psect	bssBANK1,global,class=BANK1,space=1,delta=1,noexec
    15                           	psect	dataBANK1,global,class=BANK1,space=1,delta=1,noexec
    16                           	psect	inittext,global,class=CODE,delta=2
    17                           	psect	clrtext,global,class=CODE,delta=2
    18                           	psect	cstackBANK1,global,class=BANK1,space=1,delta=1,noexec
    19                           	psect	cstackCOMMON,global,class=COMMON,space=1,delta=1,noexec
    20                           	psect	cstackBANK0,global,class=BANK0,space=1,delta=1,noexec
    21                           	psect	maintext,global,class=CODE,split=1,delta=2
    22                           	psect	text1,local,class=CODE,merge=1,delta=2
    23                           	psect	text2,local,class=CODE,merge=1,delta=2,group=2
    24                           	psect	text3,local,class=CODE,merge=1,delta=2
    25                           	psect	text4,local,class=CODE,merge=1,delta=2
    26                           	psect	text5,local,class=CODE,merge=1,delta=2
    27                           	psect	text6,local,class=CODE,merge=1,delta=2
    28                           	psect	text7,local,class=CODE,merge=1,delta=2
    29                           	psect	text8,local,class=CODE,merge=1,delta=2
    30                           	psect	text9,local,class=CODE,merge=1,delta=2
    31                           	psect	text10,local,class=CODE,merge=1,delta=2,group=2
    32                           	psect	text11,local,class=CODE,merge=1,delta=2
    33                           	psect	text12,local,class=CODE,merge=1,delta=2
    34                           	psect	text13,local,class=CODE,merge=1,delta=2
    35                           	psect	text14,local,class=CODE,merge=1,delta=2,group=1
    36                           	psect	text15,local,class=CODE,merge=1,delta=2
    37                           	psect	text16,local,class=CODE,merge=1,delta=2
    38                           	psect	text17,local,class=CODE,merge=1,delta=2
    39                           	psect	text18,local,class=CODE,merge=1,delta=2,group=1
    40                           	psect	text19,local,class=CODE,merge=1,delta=2
    41                           	psect	text20,local,class=CODE,merge=1,delta=2
    42                           	psect	text21,local,class=CODE,merge=1,delta=2
    43                           	psect	text22,local,class=CODE,merge=1,delta=2
    44                           	psect	text23,local,class=CODE,merge=1,delta=2
    45                           	psect	text24,local,class=CODE,merge=1,delta=2
    46                           	psect	text25,local,class=CODE,merge=1,delta=2
    47                           	psect	text26,local,class=CODE,merge=1,delta=2
    48                           	psect	text27,local,class=CODE,merge=1,delta=2
    49                           	psect	text28,local,class=CODE,merge=1,delta=2
    50                           	psect	text29,local,class=CODE,merge=1,delta=2
    51                           	psect	text30,local,class=CODE,merge=1,delta=2
    52                           	psect	text31,local,class=CODE,merge=1,delta=2
    53                           	psect	text32,local,class=CODE,merge=1,delta=2
    54                           	psect	text33,local,class=CODE,merge=1,delta=2
    55                           	psect	text34,local,class=CODE,merge=1,delta=2
    56                           	psect	text35,local,class=CODE,merge=1,delta=2,group=1
    57                           	psect	text36,local,class=CODE,merge=1,delta=2,group=1
    58                           	psect	text37,local,class=CODE,merge=1,delta=2
    59                           	psect	text38,local,class=CODE,merge=1,delta=2
    60                           	psect	text39,local,class=CODE,merge=1,delta=2,group=2
    61                           	psect	text40,local,class=CODE,merge=1,delta=2
    62                           	psect	text41,local,class=CODE,merge=1,delta=2
    63                           	psect	text42,local,class=CODE,merge=1,delta=2
    64                           	psect	text43,local,class=CODE,merge=1,delta=2
    65                           	psect	text44,local,class=CODE,merge=1,delta=2
    66                           	psect	text45,local,class=CODE,merge=1,delta=2,group=1
    67                           	psect	text46,local,class=CODE,merge=1,delta=2
    68                           	psect	intentry,global,class=CODE,delta=2
    69                           	psect	config,global,abs,ovrld,class=CONFIG,space=4,delta=2,noexec
    70                           	dabs	1,0x7E,2
    71     0000                     
    72                           ; Version 2.20
    73                           ; Generated 12/02/2020 GMT
    74                           ; 
    75                           ; Copyright © 2020, Microchip Technology Inc. and its subsidiaries ("Microchip")
    76                           ; All rights reserved.
    77                           ; 
    78                           ; This software is developed by Microchip Technology Inc. and its subsidiaries ("Microch
      +                          ip").
    79                           ; 
    80                           ; Redistribution and use in source and binary forms, with or without modification, are
    81                           ; permitted provided that the following conditions are met:
    82                           ; 
    83                           ;     1. Redistributions of source code must retain the above copyright notice, this lis
      +                          t of
    84                           ;        conditions and the following disclaimer.
    85                           ; 
    86                           ;     2. Redistributions in binary form must reproduce the above copyright notice, this 
      +                          list
    87                           ;        of conditions and the following disclaimer in the documentation and/or other
    88                           ;        materials provided with the distribution.
    89                           ; 
    90                           ;     3. Microchip's name may not be used to endorse or promote products derived from th
      +                          is
    91                           ;        software without specific prior written permission.
    92                           ; 
    93                           ; THIS SOFTWARE IS PROVIDED BY MICROCHIP "AS IS" AND ANY EXPRESS OR IMPLIED WARRANTIES,
    94                           ; INCLUDING, BUT NOT LIMITED TO, THE IMPLIED WARRANTIES OF MERCHANTABILITY AND FITNESS F
      +                          OR
    95                           ; PURPOSE ARE DISCLAIMED.  IN NO EVENT SHALL MICROCHIP BE LIABLE FOR ANY DIRECT, INDIREC
      +                          T,
    96                           ; INCIDENTAL, SPECIAL, EXEMPLARY, OR CONSEQUENTIAL DAMAGES (INCLUDING BUT NOT LIMITED TO
    97                           ; PROCUREMENT OF SUBSTITUTE GOODS OR SERVICES; LOSS OF USE, DATA OR PROFITS; OR BUSINESS
    98                           ; INTERRUPTION) HOWSOEVER CAUSED AND ON ANY THEORY OF LIABILITY, WHETHER IN CONTRACT, ST
      +                          RICT
    99                           ; LIABILITY, OR TORT (INCLUDING NEGLIGENCE OR OTHERWISE) ARISING IN ANY WAY OUT OF THE U
      +                          SE OF
   100                           ; THIS SOFTWARE, EVEN IF ADVISED OF THE POSSIBILITY OF SUCH DAMAGE.
   101                           ; 
   102                           ; 
   103                           ; Code-generator required, PIC16F877A Definitions
   104                           ; 
   105                           ; SFR Addresses
   106     0000                     	;# 
   107     0001                     	;# 
   108     0002                     	;# 
   109     0003                     	;# 
   110     0004                     	;# 
   111     0005                     	;# 
   112     0006                     	;# 
   113     0007                     	;# 
   114     0008                     	;# 
   115     0009                     	;# 
   116     000A                     	;# 
   117     000B                     	;# 
   118     000C                     	;# 
   119     000D                     	;# 
   120     000E                     	;# 
   121     000E                     	;# 
   122     000F                     	;# 
   123     0010                     	;# 
   124     0011                     	;# 
   125     0012                     	;# 
   126     0013                     	;# 
   127     0014                     	;# 
   128     0015                     	;# 
   129     0015                     	;# 
   130     0016                     	;# 
   131     0017                     	;# 
   132     0018                     	;# 
   133     0019                     	;# 
   134     001A                     	;# 
   135     001B                     	;# 
   136     001B                     	;# 
   137     001C                     	;# 
   138     001D                     	;# 
   139     001E                     	;# 
   140     001F                     	;# 
   141     0081                     	;# 
   142     0085                     	;# 
   143     0086                     	;# 
   144     0087                     	;# 
   145     0088                     	;# 
   146     0089                     	;# 
   147     008C                     	;# 
   148     008D                     	;# 
   149     008E                     	;# 
   150     0091                     	;# 
   151     0092                     	;# 
   152     0093                     	;# 
   153     0094                     	;# 
   154     0098                     	;# 
   155     0099                     	;# 
   156     009C                     	;# 
   157     009D                     	;# 
   158     009E                     	;# 
   159     009F                     	;# 
   160     010C                     	;# 
   161     010D                     	;# 
   162     010E                     	;# 
   163     010F                     	;# 
   164     018C                     	;# 
   165     018D                     	;# 
   166     0000                     	;# 
   167     0001                     	;# 
   168     0002                     	;# 
   169     0003                     	;# 
   170     0004                     	;# 
   171     0005                     	;# 
   172     0006                     	;# 
   173     0007                     	;# 
   174     0008                     	;# 
   175     0009                     	;# 
   176     000A                     	;# 
   177     000B                     	;# 
   178     000C                     	;# 
   179     000D                     	;# 
   180     000E                     	;# 
   181     000E                     	;# 
   182     000F                     	;# 
   183     0010                     	;# 
   184     0011                     	;# 
   185     0012                     	;# 
   186     0013                     	;# 
   187     0014                     	;# 
   188     0015                     	;# 
   189     0015                     	;# 
   190     0016                     	;# 
   191     0017                     	;# 
   192     0018                     	;# 
   193     0019                     	;# 
   194     001A                     	;# 
   195     001B                     	;# 
   196     001B                     	;# 
   197     001C                     	;# 
   198     001D                     	;# 
   199     001E                     	;# 
   200     001F                     	;# 
   201     0081                     	;# 
   202     0085                     	;# 
   203     0086                     	;# 
   204     0087                     	;# 
   205     0088                     	;# 
   206     0089                     	;# 
   207     008C                     	;# 
   208     008D                     	;# 
   209     008E                     	;# 
   210     0091                     	;# 
   211     0092                     	;# 
   212     0093                     	;# 
   213     0094                     	;# 
   214     0098                     	;# 
   215     0099                     	;# 
   216     009C                     	;# 
   217     009D                     	;# 
   218     009E                     	;# 
   219     009F                     	;# 
   220     010C                     	;# 
   221     010D                     	;# 
   222     010E                     	;# 
   223     010F                     	;# 
   224     018C                     	;# 
   225     018D                     	;# 
   226     0000                     	;# 
   227     0001                     	;# 
   228     0002                     	;# 
   229     0003                     	;# 
   230     0004                     	;# 
   231     0005                     	;# 
   232     0006                     	;# 
   233     0007                     	;# 
   234     0008                     	;# 
   235     0009                     	;# 
   236     000A                     	;# 
   237     000B                     	;# 
   238     000C                     	;# 
   239     000D                     	;# 
   240     000E                     	;# 
   241     000E                     	;# 
   242     000F                     	;# 
   243     0010                     	;# 
   244     0011                     	;# 
   245     0012                     	;# 
   246     0013                     	;# 
   247     0014                     	;# 
   248     0015                     	;# 
   249     0015                     	;# 
   250     0016                     	;# 
   251     0017                     	;# 
   252     0018                     	;# 
   253     0019                     	;# 
   254     001A                     	;# 
   255     001B                     	;# 
   256     001B                     	;# 
   257     001C                     	;# 
   258     001D                     	;# 
   259     001E                     	;# 
   260     001F                     	;# 
   261     0081                     	;# 
   262     0085                     	;# 
   263     0086                     	;# 
   264     0087                     	;# 
   265     0088                     	;# 
   266     0089                     	;# 
   267     008C                     	;# 
   268     008D                     	;# 
   269     008E                     	;# 
   270     0091                     	;# 
   271     0092                     	;# 
   272     0093                     	;# 
   273     0094                     	;# 
   274     0098                     	;# 
   275     0099                     	;# 
   276     009C                     	;# 
   277     009D                     	;# 
   278     009E                     	;# 
   279     009F                     	;# 
   280     010C                     	;# 
   281     010D                     	;# 
   282     010E                     	;# 
   283     010F                     	;# 
   284     018C                     	;# 
   285     018D                     	;# 
   286     0000                     	;# 
   287     0001                     	;# 
   288     0002                     	;# 
   289     0003                     	;# 
   290     0004                     	;# 
   291     0005                     	;# 
   292     0006                     	;# 
   293     0007                     	;# 
   294     0008                     	;# 
   295     0009                     	;# 
   296     000A                     	;# 
   297     000B                     	;# 
   298     000C                     	;# 
   299     000D                     	;# 
   300     000E                     	;# 
   301     000E                     	;# 
   302     000F                     	;# 
   303     0010                     	;# 
   304     0011                     	;# 
   305     0012                     	;# 
   306     0013                     	;# 
   307     0014                     	;# 
   308     0015                     	;# 
   309     0015                     	;# 
   310     0016                     	;# 
   311     0017                     	;# 
   312     0018                     	;# 
   313     0019                     	;# 
   314     001A                     	;# 
   315     001B                     	;# 
   316     001B                     	;# 
   317     001C                     	;# 
   318     001D                     	;# 
   319     001E                     	;# 
   320     001F                     	;# 
   321     0081                     	;# 
   322     0085                     	;# 
   323     0086                     	;# 
   324     0087                     	;# 
   325     0088                     	;# 
   326     0089                     	;# 
   327     008C                     	;# 
   328     008D                     	;# 
   329     008E                     	;# 
   330     0091                     	;# 
   331     0092                     	;# 
   332     0093                     	;# 
   333     0094                     	;# 
   334     0098                     	;# 
   335     0099                     	;# 
   336     009C                     	;# 
   337     009D                     	;# 
   338     009E                     	;# 
   339     009F                     	;# 
   340     010C                     	;# 
   341     010D                     	;# 
   342     010E                     	;# 
   343     010F                     	;# 
   344     018C                     	;# 
   345     018D                     	;# 
   346     0000                     	;# 
   347     0001                     	;# 
   348     0002                     	;# 
   349     0003                     	;# 
   350     0004                     	;# 
   351     0005                     	;# 
   352     0006                     	;# 
   353     0007                     	;# 
   354     0008                     	;# 
   355     0009                     	;# 
   356     000A                     	;# 
   357     000B                     	;# 
   358     000C                     	;# 
   359     000D                     	;# 
   360     000E                     	;# 
   361     000E                     	;# 
   362     000F                     	;# 
   363     0010                     	;# 
   364     0011                     	;# 
   365     0012                     	;# 
   366     0013                     	;# 
   367     0014                     	;# 
   368     0015                     	;# 
   369     0015                     	;# 
   370     0016                     	;# 
   371     0017                     	;# 
   372     0018                     	;# 
   373     0019                     	;# 
   374     001A                     	;# 
   375     001B                     	;# 
   376     001B                     	;# 
   377     001C                     	;# 
   378     001D                     	;# 
   379     001E                     	;# 
   380     001F                     	;# 
   381     0081                     	;# 
   382     0085                     	;# 
   383     0086                     	;# 
   384     0087                     	;# 
   385     0088                     	;# 
   386     0089                     	;# 
   387     008C                     	;# 
   388     008D                     	;# 
   389     008E                     	;# 
   390     0091                     	;# 
   391     0092                     	;# 
   392     0093                     	;# 
   393     0094                     	;# 
   394     0098                     	;# 
   395     0099                     	;# 
   396     009C                     	;# 
   397     009D                     	;# 
   398     009E                     	;# 
   399     009F                     	;# 
   400     010C                     	;# 
   401     010D                     	;# 
   402     010E                     	;# 
   403     010F                     	;# 
   404     018C                     	;# 
   405     018D                     	;# 
   406     0000                     	;# 
   407     0001                     	;# 
   408     0002                     	;# 
   409     0003                     	;# 
   410     0004                     	;# 
   411     0005                     	;# 
   412     0006                     	;# 
   413     0007                     	;# 
   414     0008                     	;# 
   415     0009                     	;# 
   416     000A                     	;# 
   417     000B                     	;# 
   418     000C                     	;# 
   419     000D                     	;# 
   420     000E                     	;# 
   421     000E                     	;# 
   422     000F                     	;# 
   423     0010                     	;# 
   424     0011                     	;# 
   425     0012                     	;# 
   426     0013                     	;# 
   427     0014                     	;# 
   428     0015                     	;# 
   429     0015                     	;# 
   430     0016                     	;# 
   431     0017                     	;# 
   432     0018                     	;# 
   433     0019                     	;# 
   434     001A                     	;# 
   435     001B                     	;# 
   436     001B                     	;# 
   437     001C                     	;# 
   438     001D                     	;# 
   439     001E                     	;# 
   440     001F                     	;# 
   441     0081                     	;# 
   442     0085                     	;# 
   443     0086                     	;# 
   444     0087                     	;# 
   445     0088                     	;# 
   446     0089                     	;# 
   447     008C                     	;# 
   448     008D                     	;# 
   449     008E                     	;# 
   450     0091                     	;# 
   451     0092                     	;# 
   452     0093                     	;# 
   453     0094                     	;# 
   454     0098                     	;# 
   455     0099                     	;# 
   456     009C                     	;# 
   457     009D                     	;# 
   458     009E                     	;# 
   459     009F                     	;# 
   460     010C                     	;# 
   461     010D                     	;# 
   462     010E                     	;# 
   463     010F                     	;# 
   464     018C                     	;# 
   465     018D                     	;# 
   466     0000                     	;# 
   467     0001                     	;# 
   468     0002                     	;# 
   469     0003                     	;# 
   470     0004                     	;# 
   471     0005                     	;# 
   472     0006                     	;# 
   473     0007                     	;# 
   474     0008                     	;# 
   475     0009                     	;# 
   476     000A                     	;# 
   477     000B                     	;# 
   478     000C                     	;# 
   479     000D                     	;# 
   480     000E                     	;# 
   481     000E                     	;# 
   482     000F                     	;# 
   483     0010                     	;# 
   484     0011                     	;# 
   485     0012                     	;# 
   486     0013                     	;# 
   487     0014                     	;# 
   488     0015                     	;# 
   489     0015                     	;# 
   490     0016                     	;# 
   491     0017                     	;# 
   492     0018                     	;# 
   493     0019                     	;# 
   494     001A                     	;# 
   495     001B                     	;# 
   496     001B                     	;# 
   497     001C                     	;# 
   498     001D                     	;# 
   499     001E                     	;# 
   500     001F                     	;# 
   501     0081                     	;# 
   502     0085                     	;# 
   503     0086                     	;# 
   504     0087                     	;# 
   505     0088                     	;# 
   506     0089                     	;# 
   507     008C                     	;# 
   508     008D                     	;# 
   509     008E                     	;# 
   510     0091                     	;# 
   511     0092                     	;# 
   512     0093                     	;# 
   513     0094                     	;# 
   514     0098                     	;# 
   515     0099                     	;# 
   516     009C                     	;# 
   517     009D                     	;# 
   518     009E                     	;# 
   519     009F                     	;# 
   520     010C                     	;# 
   521     010D                     	;# 
   522     010E                     	;# 
   523     010F                     	;# 
   524     018C                     	;# 
   525     018D                     	;# 
   526     0000                     	;# 
   527     0001                     	;# 
   528     0002                     	;# 
   529     0003                     	;# 
   530     0004                     	;# 
   531     0005                     	;# 
   532     0006                     	;# 
   533     0007                     	;# 
   534     0008                     	;# 
   535     0009                     	;# 
   536     000A                     	;# 
   537     000B                     	;# 
   538     000C                     	;# 
   539     000D                     	;# 
   540     000E                     	;# 
   541     000E                     	;# 
   542     000F                     	;# 
   543     0010                     	;# 
   544     0011                     	;# 
   545     0012                     	;# 
   546     0013                     	;# 
   547     0014                     	;# 
   548     0015                     	;# 
   549     0015                     	;# 
   550     0016                     	;# 
   551     0017                     	;# 
   552     0018                     	;# 
   553     0019                     	;# 
   554     001A                     	;# 
   555     001B                     	;# 
   556     001B                     	;# 
   557     001C                     	;# 
   558     001D                     	;# 
   559     001E                     	;# 
   560     001F                     	;# 
   561     0081                     	;# 
   562     0085                     	;# 
   563     0086                     	;# 
   564     0087                     	;# 
   565     0088                     	;# 
   566     0089                     	;# 
   567     008C                     	;# 
   568     008D                     	;# 
   569     008E                     	;# 
   570     0091                     	;# 
   571     0092                     	;# 
   572     0093                     	;# 
   573     0094                     	;# 
   574     0098                     	;# 
   575     0099                     	;# 
   576     009C                     	;# 
   577     009D                     	;# 
   578     009E                     	;# 
   579     009F                     	;# 
   580     010C                     	;# 
   581     010D                     	;# 
   582     010E                     	;# 
   583     010F                     	;# 
   584     018C                     	;# 
   585     018D                     	;# 
   586     0000                     	;# 
   587     0001                     	;# 
   588     0002                     	;# 
   589     0003                     	;# 
   590     0004                     	;# 
   591     0005                     	;# 
   592     0006                     	;# 
   593     0007                     	;# 
   594     0008                     	;# 
   595     0009                     	;# 
   596     000A                     	;# 
   597     000B                     	;# 
   598     000C                     	;# 
   599     000D                     	;# 
   600     000E                     	;# 
   601     000E                     	;# 
   602     000F                     	;# 
   603     0010                     	;# 
   604     0011                     	;# 
   605     0012                     	;# 
   606     0013                     	;# 
   607     0014                     	;# 
   608     0015                     	;# 
   609     0015                     	;# 
   610     0016                     	;# 
   611     0017                     	;# 
   612     0018                     	;# 
   613     0019                     	;# 
   614     001A                     	;# 
   615     001B                     	;# 
   616     001B                     	;# 
   617     001C                     	;# 
   618     001D                     	;# 
   619     001E                     	;# 
   620     001F                     	;# 
   621     0081                     	;# 
   622     0085                     	;# 
   623     0086                     	;# 
   624     0087                     	;# 
   625     0088                     	;# 
   626     0089                     	;# 
   627     008C                     	;# 
   628     008D                     	;# 
   629     008E                     	;# 
   630     0091                     	;# 
   631     0092                     	;# 
   632     0093                     	;# 
   633     0094                     	;# 
   634     0098                     	;# 
   635     0099                     	;# 
   636     009C                     	;# 
   637     009D                     	;# 
   638     009E                     	;# 
   639     009F                     	;# 
   640     010C                     	;# 
   641     010D                     	;# 
   642     010E                     	;# 
   643     010F                     	;# 
   644     018C                     	;# 
   645     018D                     	;# 
   646     0000                     	;# 
   647     0001                     	;# 
   648     0002                     	;# 
   649     0003                     	;# 
   650     0004                     	;# 
   651     0005                     	;# 
   652     0006                     	;# 
   653     0007                     	;# 
   654     0008                     	;# 
   655     0009                     	;# 
   656     000A                     	;# 
   657     000B                     	;# 
   658     000C                     	;# 
   659     000D                     	;# 
   660     000E                     	;# 
   661     000E                     	;# 
   662     000F                     	;# 
   663     0010                     	;# 
   664     0011                     	;# 
   665     0012                     	;# 
   666     0013                     	;# 
   667     0014                     	;# 
   668     0015                     	;# 
   669     0015                     	;# 
   670     0016                     	;# 
   671     0017                     	;# 
   672     0018                     	;# 
   673     0019                     	;# 
   674     001A                     	;# 
   675     001B                     	;# 
   676     001B                     	;# 
   677     001C                     	;# 
   678     001D                     	;# 
   679     001E                     	;# 
   680     001F                     	;# 
   681     0081                     	;# 
   682     0085                     	;# 
   683     0086                     	;# 
   684     0087                     	;# 
   685     0088                     	;# 
   686     0089                     	;# 
   687     008C                     	;# 
   688     008D                     	;# 
   689     008E                     	;# 
   690     0091                     	;# 
   691     0092                     	;# 
   692     0093                     	;# 
   693     0094                     	;# 
   694     0098                     	;# 
   695     0099                     	;# 
   696     009C                     	;# 
   697     009D                     	;# 
   698     009E                     	;# 
   699     009F                     	;# 
   700     010C                     	;# 
   701     010D                     	;# 
   702     010E                     	;# 
   703     010F                     	;# 
   704     018C                     	;# 
   705     018D                     	;# 
   706     0000                     	;# 
   707     0001                     	;# 
   708     0002                     	;# 
   709     0003                     	;# 
   710     0004                     	;# 
   711     0005                     	;# 
   712     0006                     	;# 
   713     0007                     	;# 
   714     0008                     	;# 
   715     0009                     	;# 
   716     000A                     	;# 
   717     000B                     	;# 
   718     000C                     	;# 
   719     000D                     	;# 
   720     000E                     	;# 
   721     000E                     	;# 
   722     000F                     	;# 
   723     0010                     	;# 
   724     0011                     	;# 
   725     0012                     	;# 
   726     0013                     	;# 
   727     0014                     	;# 
   728     0015                     	;# 
   729     0015                     	;# 
   730     0016                     	;# 
   731     0017                     	;# 
   732     0018                     	;# 
   733     0019                     	;# 
   734     001A                     	;# 
   735     001B                     	;# 
   736     001B                     	;# 
   737     001C                     	;# 
   738     001D                     	;# 
   739     001E                     	;# 
   740     001F                     	;# 
   741     0081                     	;# 
   742     0085                     	;# 
   743     0086                     	;# 
   744     0087                     	;# 
   745     0088                     	;# 
   746     0089                     	;# 
   747     008C                     	;# 
   748     008D                     	;# 
   749     008E                     	;# 
   750     0091                     	;# 
   751     0092                     	;# 
   752     0093                     	;# 
   753     0094                     	;# 
   754     0098                     	;# 
   755     0099                     	;# 
   756     009C                     	;# 
   757     009D                     	;# 
   758     009E                     	;# 
   759     009F                     	;# 
   760     010C                     	;# 
   761     010D                     	;# 
   762     010E                     	;# 
   763     010F                     	;# 
   764     018C                     	;# 
   765     018D                     	;# 
   766     0000                     	;# 
   767     0001                     	;# 
   768     0002                     	;# 
   769     0003                     	;# 
   770     0004                     	;# 
   771     0005                     	;# 
   772     0006                     	;# 
   773     0007                     	;# 
   774     0008                     	;# 
   775     0009                     	;# 
   776     000A                     	;# 
   777     000B                     	;# 
   778     000C                     	;# 
   779     000D                     	;# 
   780     000E                     	;# 
   781     000E                     	;# 
   782     000F                     	;# 
   783     0010                     	;# 
   784     0011                     	;# 
   785     0012                     	;# 
   786     0013                     	;# 
   787     0014                     	;# 
   788     0015                     	;# 
   789     0015                     	;# 
   790     0016                     	;# 
   791     0017                     	;# 
   792     0018                     	;# 
   793     0019                     	;# 
   794     001A                     	;# 
   795     001B                     	;# 
   796     001B                     	;# 
   797     001C                     	;# 
   798     001D                     	;# 
   799     001E                     	;# 
   800     001F                     	;# 
   801     0081                     	;# 
   802     0085                     	;# 
   803     0086                     	;# 
   804     0087                     	;# 
   805     0088                     	;# 
   806     0089                     	;# 
   807     008C                     	;# 
   808     008D                     	;# 
   809     008E                     	;# 
   810     0091                     	;# 
   811     0092                     	;# 
   812     0093                     	;# 
   813     0094                     	;# 
   814     0098                     	;# 
   815     0099                     	;# 
   816     009C                     	;# 
   817     009D                     	;# 
   818     009E                     	;# 
   819     009F                     	;# 
   820     010C                     	;# 
   821     010D                     	;# 
   822     010E                     	;# 
   823     010F                     	;# 
   824     018C                     	;# 
   825     018D                     	;# 
   826                           
   827                           	psect	idataCOMMON
   828     05FF                     __pidataCOMMON:
   829                           
   830                           ;initializer for read_digital_keypad@once
   831     05FF  3401               	retlw	1
   832                           
   833                           	psect	idataBANK0
   834     05FC                     __pidataBANK0:
   835                           
   836                           ;initializer for set_time@fp
   837     05FC  3403               	retlw	3
   838     05FD  3400               	retlw	0
   839                           
   840                           ;initializer for _pos
   841     05FE  34FF               	retlw	255
   842                           
   843                           	psect	idataBANK1
   844     169A                     __pidataBANK1:
   845                           
   846                           ;initializer for main@F1009
   847     169A  3439               	retlw	low (STR_1| (0+32768))
   848     169B  3487               	retlw	high (STR_1| (0+32768))
   849     169C  343C               	retlw	low (STR_2| (0+32768))
   850     169D  3487               	retlw	high (STR_2| (0+32768))
   851     169E  342D               	retlw	low (STR_3| (0+32768))
   852     169F  3487               	retlw	high (STR_3| (0+32768))
   853     16A0  3430               	retlw	low (STR_4| (0+32768))
   854     16A1  3487               	retlw	high (STR_4| (0+32768))
   855     16A2  3433               	retlw	low (STR_5| (0+32768))
   856     16A3  3487               	retlw	high (STR_5| (0+32768))
   857     16A4  3436               	retlw	low (STR_6| (0+32768))
   858     16A5  3487               	retlw	high (STR_6| (0+32768))
   859                           
   860                           ;initializer for _menu
   861     16A6  3413               	retlw	low (STR_12| (0+32768))
   862     16A7  3487               	retlw	high (STR_12| (0+32768))
   863     16A8  34F6               	retlw	low (STR_13| (0+32768))
   864     16A9  3486               	retlw	high (STR_13| (0+32768))
   865     16AA  34D2               	retlw	low (STR_14| (0+32768))
   866     16AB  3486               	retlw	high (STR_14| (0+32768))
   867     16AC  34EB               	retlw	low (STR_15| (0+32768))
   868     16AD  3486               	retlw	high (STR_15| (0+32768))
   869     16AE  3468               	retlw	low (STR_16| (0+32768))
   870     16AF  3486               	retlw	high (STR_16| (0+32768))
   871                           
   872                           ;initializer for main@F1007
   873     16B0  344F               	retlw	79
   874     16B1  344E               	retlw	78
   875     16B2  3400               	retlw	0
   876     000B                     _INTCONbits	set	11
   877     0003                     _STATUSbits	set	3
   878     0001                     _TMR0	set	1
   879     001E                     _ADRESH	set	30
   880     0008                     _PORTD	set	8
   881     0006                     _PORTB	set	6
   882     0013                     _SSPBUF	set	19
   883     0061                     _TMR2IF	set	97
   884     0091                     _T2CKPS1	set	145
   885     0090                     _T2CKPS0	set	144
   886     005D                     _TMR0IE	set	93
   887     00FA                     _nDONE	set	250
   888     00FA                     _GO	set	250
   889     00F8                     _ADON	set	248
   890     0049                     _RE1	set	73
   891     004A                     _RE2	set	74
   892     00A5                     _SSPEN	set	165
   893     00A3                     _SSPM3	set	163
   894     0092                     _TMR2ON	set	146
   895     005E                     _PEIE	set	94
   896     005F                     _GIE	set	95
   897     0092                     _PR2	set	146
   898     009E                     _ADRESL	set	158
   899     0088                     _TRISD	set	136
   900     0086                     _TRISB	set	134
   901     0091                     _SSPCON2	set	145
   902     0093                     _SSPADD	set	147
   903     0461                     _TMR2IE	set	1121
   904     040B                     _PSA	set	1035
   905     040D                     _T0CS	set	1037
   906     04FF                     _ADFM	set	1279
   907     0449                     _TRISE1	set	1097
   908     044A                     _TRISE2	set	1098
   909     048E                     _ACKSTAT	set	1166
   910     048C                     _ACKEN	set	1164
   911     048D                     _ACKDT	set	1165
   912     048B                     _RCEN	set	1163
   913     048A                     _PEN	set	1162
   914     0488                     _SEN	set	1160
   915     04A2                     _R_nW	set	1186
   916     010C                     _EEDATA	set	268
   917     010D                     _EEADR	set	269
   918     018D                     _EECON2	set	397
   919     018C                     _EECON1	set	396
   920     018C                     _EECON1bits	set	396
   921                           
   922                           	psect	strings
   923     1000                     __pstrings:
   924     1000                     stringtab:
   925     1000                     __stringtab:
   926                           
   927                           ;	String table - string pointers are 2 bytes each
   928     1000  1BFF               	btfsc	btemp+1,7
   929     1001  280A               	ljmp	stringcode
   930     1002  1383               	bcf	3,7
   931     1003  187F               	btfsc	btemp+1,0
   932     1004  1783               	bsf	3,7
   933     1005  0800               	movf	0,w
   934     1006  0A84               	incf	4,f
   935     1007  1903               	skipnz
   936     1008  0AFF               	incf	btemp+1,f
   937     1009  0008               	return
   938     100A                     stringcode:
   939     100A  087F               	movf	btemp+1,w
   940     100B  397F               	andlw	127
   941     100C  008A               	movwf	10
   942     100D  0804               	movf	4,w
   943     100E  0A84               	incf	4,f
   944     100F  1903               	skipnz
   945     1010  0AFF               	incf	btemp+1,f
   946     1011  0082               	movwf	2
   947     1012                     __stringbase:
   948     1012                     __end_of__stringtab:
   949                           
   950                           	psect	stringtext
   951     0600                     __pstringtext:
   952     0600                     STR_19:
   953     0600  3457               	retlw	87	;'W'
   954     0601  3461               	retlw	97	;'a'
   955     0602  3469               	retlw	105	;'i'
   956     0603  3474               	retlw	116	;'t'
   957     0604  3420               	retlw	32	;' '
   958     0605  3466               	retlw	102	;'f'
   959     0606  346F               	retlw	111	;'o'
   960     0607  3472               	retlw	114	;'r'
   961     0608  3420               	retlw	32	;' '
   962     0609  3436               	retlw	54	;'6'
   963     060A  3430               	retlw	48	;'0'
   964     060B  3420               	retlw	32	;' '
   965     060C  3473               	retlw	115	;'s'
   966     060D  3465               	retlw	101	;'e'
   967     060E  3463               	retlw	99	;'c'
   968     060F  346F               	retlw	111	;'o'
   969     0610  346E               	retlw	110	;'n'
   970     0611  3464               	retlw	100	;'d'
   971     0612  3473               	retlw	115	;'s'
   972     0613  3400               	retlw	0
   973     0614                     STR_17:
   974     0614  3420               	retlw	32	;' '
   975     0615  3420               	retlw	32	;' '
   976     0616  3454               	retlw	84	;'T'
   977     0617  3449               	retlw	73	;'I'
   978     0618  344D               	retlw	77	;'M'
   979     0619  3445               	retlw	69	;'E'
   980     061A  3420               	retlw	32	;' '
   981     061B  3420               	retlw	32	;' '
   982     061C  3420               	retlw	32	;' '
   983     061D  3420               	retlw	32	;' '
   984     061E  3420               	retlw	32	;' '
   985     061F  3445               	retlw	69	;'E'
   986     0620  3420               	retlw	32	;' '
   987     0621  3420               	retlw	32	;' '
   988     0622  3453               	retlw	83	;'S'
   989     0623  3450               	retlw	80	;'P'
   990     0624  3400               	retlw	0
   991     0625                     STR_27:
   992     0625  3452               	retlw	82	;'R'
   993     0626  3465               	retlw	101	;'e'
   994     0627  342D               	retlw	45	;'-'
   995     0628  3465               	retlw	101	;'e'
   996     0629  346E               	retlw	110	;'n'
   997     062A  3474               	retlw	116	;'t'
   998     062B  3465               	retlw	101	;'e'
   999     062C  3472               	retlw	114	;'r'
  1000     062D  3420               	retlw	32	;' '
  1001     062E  344E               	retlw	78	;'N'
  1002     062F  3465               	retlw	101	;'e'
  1003     0630  3477               	retlw	119	;'w'
  1004     0631  3420               	retlw	32	;' '
  1005     0632  3450               	retlw	80	;'P'
  1006     0633  3477               	retlw	119	;'w'
  1007     0634  3464               	retlw	100	;'d'
  1008     0635  3400               	retlw	0
  1009     0636                     STR_28:
  1010     0636  3420               	retlw	32	;' '
  1011     0637  3450               	retlw	80	;'P'
  1012     0638  3461               	retlw	97	;'a'
  1013     0639  3473               	retlw	115	;'s'
  1014     063A  3473               	retlw	115	;'s'
  1015     063B  3477               	retlw	119	;'w'
  1016     063C  346F               	retlw	111	;'o'
  1017     063D  3472               	retlw	114	;'r'
  1018     063E  3464               	retlw	100	;'d'
  1019     063F  3420               	retlw	32	;' '
  1020     0640  3443               	retlw	67	;'C'
  1021     0641  3468               	retlw	104	;'h'
  1022     0642  3461               	retlw	97	;'a'
  1023     0643  346E               	retlw	110	;'n'
  1024     0644  3467               	retlw	103	;'g'
  1025     0645  3465               	retlw	101	;'e'
  1026     0646  3400               	retlw	0
  1027     0647                     STR_10:
  1028     0647  3423               	retlw	35	;'#'
  1029     0648  3420               	retlw	32	;' '
  1030     0649  3454               	retlw	84	;'T'
  1031     064A  3449               	retlw	73	;'I'
  1032     064B  344D               	retlw	77	;'M'
  1033     064C  3445               	retlw	69	;'E'
  1034     064D  3420               	retlw	32	;' '
  1035     064E  3420               	retlw	32	;' '
  1036     064F  3420               	retlw	32	;' '
  1037     0650  3420               	retlw	32	;' '
  1038     0651  3420               	retlw	32	;' '
  1039     0652  3445               	retlw	69	;'E'
  1040     0653  3420               	retlw	32	;' '
  1041     0654  3420               	retlw	32	;' '
  1042     0655  3453               	retlw	83	;'S'
  1043     0656  3450               	retlw	80	;'P'
  1044     0657  3400               	retlw	0
  1045     0658                     STR_18:
  1046     0658  3459               	retlw	89	;'Y'
  1047     0659  346F               	retlw	111	;'o'
  1048     065A  3475               	retlw	117	;'u'
  1049     065B  3420               	retlw	32	;' '
  1050     065C  3461               	retlw	97	;'a'
  1051     065D  3472               	retlw	114	;'r'
  1052     065E  3465               	retlw	101	;'e'
  1053     065F  3420               	retlw	32	;' '
  1054     0660  3462               	retlw	98	;'b'
  1055     0661  346C               	retlw	108	;'l'
  1056     0662  346F               	retlw	111	;'o'
  1057     0663  3463               	retlw	99	;'c'
  1058     0664  346B               	retlw	107	;'k'
  1059     0665  3465               	retlw	101	;'e'
  1060     0666  3464               	retlw	100	;'d'
  1061     0667  3400               	retlw	0
  1062     0668                     STR_16:
  1063     0668  3443               	retlw	67	;'C'
  1064     0669  3468               	retlw	104	;'h'
  1065     066A  3461               	retlw	97	;'a'
  1066     066B  346E               	retlw	110	;'n'
  1067     066C  3467               	retlw	103	;'g'
  1068     066D  3465               	retlw	101	;'e'
  1069     066E  3420               	retlw	32	;' '
  1070     066F  3470               	retlw	112	;'p'
  1071     0670  3461               	retlw	97	;'a'
  1072     0671  3473               	retlw	115	;'s'
  1073     0672  3473               	retlw	115	;'s'
  1074     0673  3477               	retlw	119	;'w'
  1075     0674  346F               	retlw	111	;'o'
  1076     0675  3472               	retlw	114	;'r'
  1077     0676  3464               	retlw	100	;'d'
  1078     0677  3400               	retlw	0
  1079     0678                     STR_9:
  1080     0678  3445               	retlw	69	;'E'
  1081     0679  346E               	retlw	110	;'n'
  1082     067A  3474               	retlw	116	;'t'
  1083     067B  3465               	retlw	101	;'e'
  1084     067C  3472               	retlw	114	;'r'
  1085     067D  3420               	retlw	32	;' '
  1086     067E  3450               	retlw	80	;'P'
  1087     067F  3461               	retlw	97	;'a'
  1088     0680  3473               	retlw	115	;'s'
  1089     0681  3473               	retlw	115	;'s'
  1090     0682  3477               	retlw	119	;'w'
  1091     0683  346F               	retlw	111	;'o'
  1092     0684  3472               	retlw	114	;'r'
  1093     0685  3464               	retlw	100	;'d'
  1094     0686  3420               	retlw	32	;' '
  1095     0687  3400               	retlw	0
  1096     0688                     STR_24:
  1097     0688  3420               	retlw	32	;' '
  1098     0689  344C               	retlw	76	;'L'
  1099     068A  346F               	retlw	111	;'o'
  1100     068B  3467               	retlw	103	;'g'
  1101     068C  3473               	retlw	115	;'s'
  1102     068D  3420               	retlw	32	;' '
  1103     068E  3443               	retlw	67	;'C'
  1104     068F  346C               	retlw	108	;'l'
  1105     0690  3465               	retlw	101	;'e'
  1106     0691  3461               	retlw	97	;'a'
  1107     0692  3472               	retlw	114	;'r'
  1108     0693  3465               	retlw	101	;'e'
  1109     0694  3464               	retlw	100	;'d'
  1110     0695  3420               	retlw	32	;' '
  1111     0696  3400               	retlw	0
  1112     0697                     STR_25:
  1113     0697  3420               	retlw	32	;' '
  1114     0698  3453               	retlw	83	;'S'
  1115     0699  3475               	retlw	117	;'u'
  1116     069A  3463               	retlw	99	;'c'
  1117     069B  3463               	retlw	99	;'c'
  1118     069C  3465               	retlw	101	;'e'
  1119     069D  3473               	retlw	115	;'s'
  1120     069E  3473               	retlw	115	;'s'
  1121     069F  3466               	retlw	102	;'f'
  1122     06A0  3475               	retlw	117	;'u'
  1123     06A1  346C               	retlw	108	;'l'
  1124     06A2  346C               	retlw	108	;'l'
  1125     06A3  3479               	retlw	121	;'y'
  1126     06A4  3420               	retlw	32	;' '
  1127     06A5  3400               	retlw	0
  1128     06A6                     STR_22:
  1129     06A6  3445               	retlw	69	;'E'
  1130     06A7  346E               	retlw	110	;'n'
  1131     06A8  3474               	retlw	116	;'t'
  1132     06A9  3465               	retlw	101	;'e'
  1133     06AA  3472               	retlw	114	;'r'
  1134     06AB  3420               	retlw	32	;' '
  1135     06AC  3450               	retlw	80	;'P'
  1136     06AD  3461               	retlw	97	;'a'
  1137     06AE  3473               	retlw	115	;'s'
  1138     06AF  3473               	retlw	115	;'s'
  1139     06B0  3477               	retlw	119	;'w'
  1140     06B1  346F               	retlw	111	;'o'
  1141     06B2  3472               	retlw	114	;'r'
  1142     06B3  3464               	retlw	100	;'d'
  1143     06B4  3400               	retlw	0
  1144     06B5                     STR_20:
  1145     06B5  3477               	retlw	119	;'w'
  1146     06B6  3472               	retlw	114	;'r'
  1147     06B7  346F               	retlw	111	;'o'
  1148     06B8  346E               	retlw	110	;'n'
  1149     06B9  3467               	retlw	103	;'g'
  1150     06BA  3420               	retlw	32	;' '
  1151     06BB  3470               	retlw	112	;'p'
  1152     06BC  3461               	retlw	97	;'a'
  1153     06BD  3473               	retlw	115	;'s'
  1154     06BE  3473               	retlw	115	;'s'
  1155     06BF  3477               	retlw	119	;'w'
  1156     06C0  346F               	retlw	111	;'o'
  1157     06C1  3472               	retlw	114	;'r'
  1158     06C2  3464               	retlw	100	;'d'
  1159     06C3  3400               	retlw	0
  1160     06C4                     STR_26:
  1161     06C4  3445               	retlw	69	;'E'
  1162     06C5  346E               	retlw	110	;'n'
  1163     06C6  3474               	retlw	116	;'t'
  1164     06C7  3465               	retlw	101	;'e'
  1165     06C8  3472               	retlw	114	;'r'
  1166     06C9  3420               	retlw	32	;' '
  1167     06CA  344E               	retlw	78	;'N'
  1168     06CB  3465               	retlw	101	;'e'
  1169     06CC  3477               	retlw	119	;'w'
  1170     06CD  3420               	retlw	32	;' '
  1171     06CE  3450               	retlw	80	;'P'
  1172     06CF  3477               	retlw	119	;'w'
  1173     06D0  3464               	retlw	100	;'d'
  1174     06D1  3400               	retlw	0
  1175     06D2                     STR_14:
  1176     06D2  3444               	retlw	68	;'D'
  1177     06D3  346F               	retlw	111	;'o'
  1178     06D4  3477               	retlw	119	;'w'
  1179     06D5  346E               	retlw	110	;'n'
  1180     06D6  346C               	retlw	108	;'l'
  1181     06D7  346F               	retlw	111	;'o'
  1182     06D8  3461               	retlw	97	;'a'
  1183     06D9  3464               	retlw	100	;'d'
  1184     06DA  3420               	retlw	32	;' '
  1185     06DB  346C               	retlw	108	;'l'
  1186     06DC  346F               	retlw	111	;'o'
  1187     06DD  3467               	retlw	103	;'g'
  1188     06DE  3400               	retlw	0
  1189     06DF                     STR_21:
  1190     06DF  3441               	retlw	65	;'A'
  1191     06E0  3474               	retlw	116	;'t'
  1192     06E1  3474               	retlw	116	;'t'
  1193     06E2  3465               	retlw	101	;'e'
  1194     06E3  346D               	retlw	109	;'m'
  1195     06E4  3470               	retlw	112	;'p'
  1196     06E5  3474               	retlw	116	;'t'
  1197     06E6  3420               	retlw	32	;' '
  1198     06E7  3472               	retlw	114	;'r'
  1199     06E8  3465               	retlw	101	;'e'
  1200     06E9  346D               	retlw	109	;'m'
  1201     06EA  3400               	retlw	0
  1202     06EB                     STR_15:
  1203     06EB  3452               	retlw	82	;'R'
  1204     06EC  3465               	retlw	101	;'e'
  1205     06ED  3473               	retlw	115	;'s'
  1206     06EE  3465               	retlw	101	;'e'
  1207     06EF  3474               	retlw	116	;'t'
  1208     06F0  3420               	retlw	32	;' '
  1209     06F1  3474               	retlw	116	;'t'
  1210     06F2  3469               	retlw	105	;'i'
  1211     06F3  346D               	retlw	109	;'m'
  1212     06F4  3465               	retlw	101	;'e'
  1213     06F5  3400               	retlw	0
  1214     06F6                     STR_13:
  1215     06F6  3443               	retlw	67	;'C'
  1216     06F7  346C               	retlw	108	;'l'
  1217     06F8  3465               	retlw	101	;'e'
  1218     06F9  3461               	retlw	97	;'a'
  1219     06FA  3472               	retlw	114	;'r'
  1220     06FB  3420               	retlw	32	;' '
  1221     06FC  346C               	retlw	108	;'l'
  1222     06FD  346F               	retlw	111	;'o'
  1223     06FE  3467               	retlw	103	;'g'
  1224     06FF  3400               	retlw	0
  1225     0700                     STR_11:
  1226     0700  3420               	retlw	32	;' '
  1227     0701  3453               	retlw	83	;'S'
  1228     0702  3445               	retlw	69	;'E'
  1229     0703  3454               	retlw	84	;'T'
  1230     0704  3420               	retlw	32	;' '
  1231     0705  3454               	retlw	84	;'T'
  1232     0706  3449               	retlw	73	;'I'
  1233     0707  344D               	retlw	77	;'M'
  1234     0708  3445               	retlw	69	;'E'
  1235     0709  3400               	retlw	0
  1236     070A                     STR_31:
  1237     070A  3420               	retlw	32	;' '
  1238     070B  3446               	retlw	70	;'F'
  1239     070C  3461               	retlw	97	;'a'
  1240     070D  3469               	retlw	105	;'i'
  1241     070E  346C               	retlw	108	;'l'
  1242     070F  3465               	retlw	101	;'e'
  1243     0710  3464               	retlw	100	;'d'
  1244     0711  3420               	retlw	32	;' '
  1245     0712  3400               	retlw	0
  1246     0713                     STR_12:
  1247     0713  3456               	retlw	86	;'V'
  1248     0714  3469               	retlw	105	;'i'
  1249     0715  3465               	retlw	101	;'e'
  1250     0716  3477               	retlw	119	;'w'
  1251     0717  3420               	retlw	32	;' '
  1252     0718  346C               	retlw	108	;'l'
  1253     0719  346F               	retlw	111	;'o'
  1254     071A  3467               	retlw	103	;'g'
  1255     071B  3400               	retlw	0
  1256     071C                     STR_23:
  1257     071C  3420               	retlw	32	;' '
  1258     071D  344E               	retlw	78	;'N'
  1259     071E  346F               	retlw	111	;'o'
  1260     071F  3420               	retlw	32	;' '
  1261     0720  346C               	retlw	108	;'l'
  1262     0721  346F               	retlw	111	;'o'
  1263     0722  3467               	retlw	103	;'g'
  1264     0723  3473               	retlw	115	;'s'
  1265     0724  3400               	retlw	0
  1266     0725                     STR_7:
  1267     0725  3431               	retlw	49	;'1'
  1268     0726  3430               	retlw	48	;'0'
  1269     0727  3431               	retlw	49	;'1'
  1270     0728  3430               	retlw	48	;'0'
  1271     0729  3400               	retlw	0
  1272     072A                     STR_8:
  1273     072A  3443               	retlw	67	;'C'
  1274     072B  3420               	retlw	32	;' '
  1275     072C  3400               	retlw	0
  1276     072D                     STR_3:
  1277     072D  3447               	retlw	71	;'G'
  1278     072E  3431               	retlw	49	;'1'
  1279     072F  3400               	retlw	0
  1280     0730                     STR_4:
  1281     0730  3447               	retlw	71	;'G'
  1282     0731  3432               	retlw	50	;'2'
  1283     0732  3400               	retlw	0
  1284     0733                     STR_5:
  1285     0733  3447               	retlw	71	;'G'
  1286     0734  3433               	retlw	51	;'3'
  1287     0735  3400               	retlw	0
  1288     0736                     STR_6:
  1289     0736  3447               	retlw	71	;'G'
  1290     0737  3434               	retlw	52	;'4'
  1291     0738  3400               	retlw	0
  1292     0739                     STR_1:
  1293     0739  3447               	retlw	71	;'G'
  1294     073A  344E               	retlw	78	;'N'
  1295     073B  3400               	retlw	0
  1296     073C                     STR_2:
  1297     073C  3447               	retlw	71	;'G'
  1298     073D  3452               	retlw	82	;'R'
  1299     073E  3400               	retlw	0
  1300     0697                     
  1301                           	psect	cinit
  1302     0011                     start_initialization:	
  1303                           ; #config settings
  1304                           
  1305     0011                     __initialization:
  1306                           
  1307                           ; Initialize objects allocated to BANK1
  1308     0011  1383               	bcf	3,7	;select IRP bank0
  1309     0012  30D5               	movlw	low (__pdataBANK1+25)
  1310     0013  00FD               	movwf	btemp+-1
  1311     0014  3016               	movlw	high __pidataBANK1
  1312     0015  00FE               	movwf	btemp
  1313     0016  309A               	movlw	low __pidataBANK1
  1314     0017  00FF               	movwf	btemp+1
  1315     0018  30BC               	movlw	low __pdataBANK1
  1316     0019  0084               	movwf	4
  1317     001A  160A  118A  264B  120A  118A  	fcall	init_ram0
  1318                           
  1319                           ; Initialize objects allocated to BANK0
  1320     001F  305C               	movlw	low (__pdataBANK0+3)
  1321     0020  00FD               	movwf	btemp+-1
  1322     0021  3005               	movlw	high __pidataBANK0
  1323     0022  00FE               	movwf	btemp
  1324     0023  30FC               	movlw	low __pidataBANK0
  1325     0024  00FF               	movwf	btemp+1
  1326     0025  3059               	movlw	low __pdataBANK0
  1327     0026  0084               	movwf	4
  1328     0027  160A  118A  264B  120A  118A  	fcall	init_ram0
  1329                           
  1330                           ; Initialize objects allocated to COMMON
  1331     002C  120A  118A  25FF  120A  118A  	fcall	__pidataCOMMON	;fetch initializer
  1332     0031  00FA               	movwf	__pdataCOMMON& (0+127)
  1333                           
  1334                           ; Clear objects allocated to BANK1
  1335     0032  30A0               	movlw	low __pbssBANK1
  1336     0033  0084               	movwf	4
  1337     0034  30BC               	movlw	low (__pbssBANK1+28)
  1338     0035  160A  118A  25F8  120A  118A  	fcall	clear_ram0
  1339                           
  1340                           ; Clear objects allocated to BANK0
  1341     003A  303F               	movlw	low __pbssBANK0
  1342     003B  0084               	movwf	4
  1343     003C  3059               	movlw	low (__pbssBANK0+26)
  1344     003D  160A  118A  25F8  120A  118A  	fcall	clear_ram0
  1345                           
  1346                           ; Clear objects allocated to COMMON
  1347     0042  01F6               	clrf	__pbssCOMMON& (0+127)
  1348     0043  01F7               	clrf	(__pbssCOMMON+1)& (0+127)
  1349     0044  01F8               	clrf	(__pbssCOMMON+2)& (0+127)
  1350     0045  01F9               	clrf	(__pbssCOMMON+3)& (0+127)
  1351     0046                     end_of_initialization:	
  1352                           ;End of C runtime variable initialization code
  1353                           
  1354     0046                     __end_of__initialization:
  1355     0046  0183               	clrf	3
  1356     0047  120A  118A  284A   	ljmp	_main	;jump to C main() function
  1357                           
  1358                           	psect	bssCOMMON
  1359     0076                     __pbssCOMMON:
  1360     0076                     isr@count1:
  1361     0076                     	ds	2
  1362     0078                     isr@count:
  1363     0078                     	ds	2
  1364                           
  1365                           	psect	dataCOMMON
  1366     007A                     __pdataCOMMON:
  1367     007A                     read_digital_keypad@once:
  1368     007A                     	ds	1
  1369                           
  1370                           	psect	bssBANK0
  1371     003F                     __pbssBANK0:
  1372     003F                     _clock_reg:
  1373     003F                     	ds	3
  1374     0042                     change_password@once:
  1375     0042                     	ds	2
  1376     0044                     change_password@p:
  1377     0044                     	ds	2
  1378     0046                     _sec:
  1379     0046                     	ds	2
  1380     0048                     _access:
  1381     0048                     	ds	2
  1382     004A                     _tick:
  1383     004A                     	ds	2
  1384     004C                     _return_time:
  1385     004C                     	ds	2
  1386     004E                     view_log@npos:
  1387     004E                     	ds	1
  1388     004F                     login_menu@menu_pos:
  1389     004F                     	ds	1
  1390     0050                     login@attempt_rem:
  1391     0050                     	ds	1
  1392     0051                     login@i:
  1393     0051                     	ds	1
  1394     0052                     _time:
  1395     0052                     	ds	7
  1396                           
  1397                           	psect	dataBANK0
  1398     0059                     __pdataBANK0:
  1399     0059                     set_time@fp:
  1400     0059                     	ds	2
  1401     005B                     _pos:
  1402     005B                     	ds	1
  1403                           
  1404                           	psect	bssBANK1
  1405     00A0                     __pbssBANK1:
  1406     00A0                     _log:
  1407     00A0                     	ds	11
  1408     00AB                     change_password@pwd:
  1409     00AB                     	ds	9
  1410     00B4                     login@spasswd:
  1411     00B4                     	ds	4
  1412     00B8                     login@npasswd:
  1413     00B8                     	ds	4
  1414                           
  1415                           	psect	dataBANK1
  1416     00BC                     __pdataBANK1:
  1417     00BC                     main@F1009:
  1418     00BC                     	ds	12
  1419     00C8                     _menu:
  1420     00C8                     	ds	10
  1421     00D2                     main@F1007:
  1422     00D2                     	ds	3
  1423                           
  1424                           	psect	inittext
  1425     1647                     init_fetch0:	
  1426                           ;	Called with low address in FSR and high address in W
  1427                           
  1428     1647  087E               	movf	btemp,w
  1429     1648  008A               	movwf	10
  1430     1649  087F               	movf	btemp+1,w
  1431     164A  0082               	movwf	2
  1432     164B                     init_ram0:	
  1433                           ;Called with:
  1434                           ;	high address of idata address in btemp 
  1435                           ;	low address of idata address in btemp+1 
  1436                           ;	low address of data in FSR
  1437                           ;	high address + 1 of data in btemp-1
  1438                           
  1439     164B  160A  118A  2647  160A  118A  	fcall	init_fetch0
  1440     1650  0080               	movwf	0
  1441     1651  0A84               	incf	4,f
  1442     1652  0804               	movf	4,w
  1443     1653  067D               	xorwf	btemp+-1,w
  1444     1654  1903               	btfsc	3,2
  1445     1655  3400               	retlw	0
  1446     1656  0AFF               	incf	btemp+1,f
  1447     1657  1903               	btfsc	3,2
  1448     1658  0AFE               	incf	btemp,f
  1449     1659  2E4B               	goto	init_ram0
  1450                           
  1451                           	psect	clrtext
  1452     15F8                     clear_ram0:	
  1453                           ;	Called with FSR containing the base address, and
  1454                           ;	W with the last address+1
  1455                           
  1456     15F8  0064               	clrwdt	;clear the watchdog before getting into this loop
  1457     15F9                     clrloop0:
  1458     15F9  0180               	clrf	0	;clear RAM location pointed to by FSR
  1459     15FA  0A84               	incf	4,f	;increment pointer
  1460     15FB  0604               	xorwf	4,w	;XOR with final address
  1461     15FC  1903               	btfsc	3,2	;have we reached the end yet?
  1462     15FD  3400               	retlw	0	;all done for this memory range, return
  1463     15FE  0604               	xorwf	4,w	;XOR again to restore value
  1464     15FF  2DF9               	goto	clrloop0	;do the next byte
  1465                           
  1466                           	psect	cstackBANK1
  1467     00D5                     __pcstackBANK1:
  1468     00D5                     main@gear:
  1469                           
  1470                           ; 12 bytes @ 0x0
  1471     00D5                     	ds	12
  1472     00E1                     main@menu_pos:
  1473                           
  1474                           ; 1 bytes @ 0xC
  1475     00E1                     	ds	1
  1476     00E2                     main@event:
  1477                           
  1478                           ; 3 bytes @ 0xD
  1479     00E2                     	ds	3
  1480     00E5                     main@gr:
  1481                           
  1482                           ; 2 bytes @ 0x10
  1483     00E5                     	ds	2
  1484     00E7                     main@control_flag:
  1485                           
  1486                           ; 1 bytes @ 0x12
  1487     00E7                     	ds	1
  1488     00E8                     main@speed:
  1489                           
  1490                           ; 1 bytes @ 0x13
  1491     00E8                     	ds	1
  1492     00E9                     main@reset_flag:
  1493                           
  1494                           ; 1 bytes @ 0x14
  1495     00E9                     	ds	1
  1496     00EA                     main@key:
  1497                           
  1498                           ; 1 bytes @ 0x15
  1499     00EA                     	ds	1
  1500                           
  1501                           	psect	cstackCOMMON
  1502     0070                     __pcstackCOMMON:
  1503     0070                     ?_init_clcd:
  1504     0070                     ?_init_digital_keypad:	
  1505                           ; 1 bytes @ 0x0
  1506                           
  1507     0070                     ?_init_adc:	
  1508                           ; 1 bytes @ 0x0
  1509                           
  1510     0070                     ?_init_ds1307:	
  1511                           ; 1 bytes @ 0x0
  1512                           
  1513     0070                     ?_init_timer2:	
  1514                           ; 1 bytes @ 0x0
  1515                           
  1516     0070                     ?_read_digital_keypad:	
  1517                           ; 1 bytes @ 0x0
  1518                           
  1519     0070                     ?_clear_screen:	
  1520                           ; 1 bytes @ 0x0
  1521                           
  1522     0070                     ?_clear_log:	
  1523                           ; 1 bytes @ 0x0
  1524                           
  1525     0070                     ?_read_ds1307:	
  1526                           ; 1 bytes @ 0x0
  1527                           
  1528     0070                     ?_i2c_start:	
  1529                           ; 1 bytes @ 0x0
  1530                           
  1531     0070                     ?_i2c_rep_start:	
  1532                           ; 1 bytes @ 0x0
  1533                           
  1534     0070                     ?_i2c_read:	
  1535                           ; 1 bytes @ 0x0
  1536                           
  1537     0070                     ?_i2c_stop:	
  1538                           ; 1 bytes @ 0x0
  1539                           
  1540     0070                     ?_ext_eeprom_24C02_read:	
  1541                           ; 1 bytes @ 0x0
  1542                           
  1543     0070                     ?_init_config:	
  1544                           ; 1 bytes @ 0x0
  1545                           
  1546     0070                     ?_main:	
  1547                           ; 1 bytes @ 0x0
  1548                           
  1549     0070                     ?_i2c_wait_for_idle:	
  1550                           ; 1 bytes @ 0x0
  1551                           
  1552     0070                     ?_init_display_controller:	
  1553                           ; 1 bytes @ 0x0
  1554                           
  1555     0070                     ?_get_time:	
  1556                           ; 1 bytes @ 0x0
  1557                           
  1558     0070                     ?_log_car_event:	
  1559                           ; 1 bytes @ 0x0
  1560                           
  1561     0070                     ?_isr:	
  1562                           ; 1 bytes @ 0x0
  1563                           
  1564     0070                     ??_isr:	
  1565                           ; 1 bytes @ 0x0
  1566                           
  1567                           
  1568                           ; 1 bytes @ 0x0
  1569     0070                     	ds	3
  1570     0073                     ??_init_digital_keypad:
  1571     0073                     ??_init_adc:	
  1572                           ; 1 bytes @ 0x3
  1573                           
  1574     0073                     ??_init_timer2:	
  1575                           ; 1 bytes @ 0x3
  1576                           
  1577     0073                     ??_read_digital_keypad:	
  1578                           ; 1 bytes @ 0x3
  1579                           
  1580     0073                     ?_strcpy:	
  1581                           ; 1 bytes @ 0x3
  1582                           
  1583     0073                     ?_clcd_write:	
  1584                           ; 1 bytes @ 0x3
  1585                           
  1586     0073                     ??_i2c_start:	
  1587                           ; 1 bytes @ 0x3
  1588                           
  1589     0073                     ??_i2c_rep_start:	
  1590                           ; 1 bytes @ 0x3
  1591                           
  1592     0073                     ??_i2c_read:	
  1593                           ; 1 bytes @ 0x3
  1594                           
  1595     0073                     ??_i2c_stop:	
  1596                           ; 1 bytes @ 0x3
  1597                           
  1598     0073                     ?_strncpy:	
  1599                           ; 1 bytes @ 0x3
  1600                           
  1601     0073                     ?_eeprom_write:	
  1602                           ; 1 bytes @ 0x3
  1603                           
  1604     0073                     ??_i2c_wait_for_idle:	
  1605                           ; 1 bytes @ 0x3
  1606                           
  1607     0073                     ?___bmul:	
  1608                           ; 1 bytes @ 0x3
  1609                           
  1610     0073                     ??___lldiv:	
  1611                           ; 1 bytes @ 0x3
  1612                           
  1613     0073                     ??___awdiv:	
  1614                           ; 1 bytes @ 0x3
  1615                           
  1616     0073                     ??___awmod:	
  1617                           ; 1 bytes @ 0x3
  1618                           
  1619     0073                     ?_read_adc:	
  1620                           ; 1 bytes @ 0x3
  1621                           
  1622     0073                     ?_i2c_write:	
  1623                           ; 2 bytes @ 0x3
  1624                           
  1625     0073                     ?_strncmp:	
  1626                           ; 2 bytes @ 0x3
  1627                           
  1628     0073                     i2c_read@ack:	
  1629                           ; 2 bytes @ 0x3
  1630                           
  1631     0073                     clcd_write@mode:	
  1632                           ; 1 bytes @ 0x3
  1633                           
  1634     0073                     eeprom_write@value:	
  1635                           ; 1 bytes @ 0x3
  1636                           
  1637     0073                     ___bmul@multiplicand:	
  1638                           ; 1 bytes @ 0x3
  1639                           
  1640     0073                     strncmp@s2:	
  1641                           ; 1 bytes @ 0x3
  1642                           
  1643     0073                     strncpy@from:	
  1644                           ; 1 bytes @ 0x3
  1645                           
  1646     0073                     strcpy@from:	
  1647                           ; 1 bytes @ 0x3
  1648                           
  1649                           
  1650                           ; 2 bytes @ 0x3
  1651     0073                     	ds	1
  1652     0074                     ??_clcd_write:
  1653     0074                     ??_eeprom_write:	
  1654                           ; 1 bytes @ 0x4
  1655                           
  1656     0074                     ??___bmul:	
  1657                           ; 1 bytes @ 0x4
  1658                           
  1659     0074                     i2c_read@data:	
  1660                           ; 1 bytes @ 0x4
  1661                           
  1662     0074                     read_digital_keypad@mode:	
  1663                           ; 1 bytes @ 0x4
  1664                           
  1665     0074                     ___awmod@counter:	
  1666                           ; 1 bytes @ 0x4
  1667                           
  1668     0074                     strncmp@len:	
  1669                           ; 1 bytes @ 0x4
  1670                           
  1671     0074                     strncpy@size:	
  1672                           ; 2 bytes @ 0x4
  1673                           
  1674                           
  1675                           ; 2 bytes @ 0x4
  1676     0074                     	ds	1
  1677     0075                     ??_read_adc:
  1678     0075                     ??_strcpy:	
  1679                           ; 1 bytes @ 0x5
  1680                           
  1681     0075                     ??___lwdiv:	
  1682                           ; 1 bytes @ 0x5
  1683                           
  1684     0075                     i2c_write@data:	
  1685                           ; 1 bytes @ 0x5
  1686                           
  1687     0075                     eeprom_write@addr:	
  1688                           ; 1 bytes @ 0x5
  1689                           
  1690     0075                     ___awmod@sign:	
  1691                           ; 1 bytes @ 0x5
  1692                           
  1693                           
  1694                           ; 1 bytes @ 0x5
  1695     0075                     	ds	1
  1696     0076                     ??_init_clcd:
  1697     0076                     ??_init_ds1307:	
  1698                           ; 1 bytes @ 0x6
  1699                           
  1700     0076                     ??_clcd_print:	
  1701                           ; 1 bytes @ 0x6
  1702                           
  1703     0076                     ??_clcd_putch:	
  1704                           ; 1 bytes @ 0x6
  1705                           
  1706     0076                     ??_read_ds1307:	
  1707                           ; 1 bytes @ 0x6
  1708                           
  1709     0076                     ??_write_ds1307:	
  1710                           ; 1 bytes @ 0x6
  1711                           
  1712     0076                     ??_ext_eeprom_24C02_read:	
  1713                           ; 1 bytes @ 0x6
  1714                           
  1715     0076                     ??_init_config:	
  1716                           ; 1 bytes @ 0x6
  1717                           
  1718     0076                     ??_display_time:	
  1719                           ; 1 bytes @ 0x6
  1720                           
  1721     0076                     ??_ext_eeprom_24C02_byte_write:	
  1722                           ; 1 bytes @ 0x6
  1723                           
  1724                           
  1725                           	psect	cstackBANK0
  1726     0020                     __pcstackBANK0:	
  1727                           ; 1 bytes @ 0x6
  1728                           
  1729     0020                     ??_i2c_write:
  1730     0020                     ??_strncpy:	
  1731                           ; 1 bytes @ 0x0
  1732                           
  1733     0020                     ??_strncmp:	
  1734                           ; 1 bytes @ 0x0
  1735                           
  1736     0020                     ?___awdiv:	
  1737                           ; 1 bytes @ 0x0
  1738                           
  1739     0020                     ?___awmod:	
  1740                           ; 2 bytes @ 0x0
  1741                           
  1742     0020                     ?___lldiv:	
  1743                           ; 2 bytes @ 0x0
  1744                           
  1745     0020                     clcd_write@byte:	
  1746                           ; 4 bytes @ 0x0
  1747                           
  1748     0020                     ___bmul@product:	
  1749                           ; 1 bytes @ 0x0
  1750                           
  1751     0020                     strcpy@cp:	
  1752                           ; 1 bytes @ 0x0
  1753                           
  1754     0020                     read_adc@adc_reg_val:	
  1755                           ; 1 bytes @ 0x0
  1756                           
  1757     0020                     ___awdiv@divisor:	
  1758                           ; 2 bytes @ 0x0
  1759                           
  1760     0020                     ___awmod@divisor:	
  1761                           ; 2 bytes @ 0x0
  1762                           
  1763     0020                     ___lldiv@divisor:	
  1764                           ; 2 bytes @ 0x0
  1765                           
  1766                           
  1767                           ; 4 bytes @ 0x0
  1768     0020                     	ds	1
  1769     0021                     ??_clear_screen:
  1770     0021                     ?_clcd_print:	
  1771                           ; 1 bytes @ 0x1
  1772                           
  1773     0021                     ??_init_display_controller:	
  1774                           ; 1 bytes @ 0x1
  1775                           
  1776     0021                     ___bmul@multiplier:	
  1777                           ; 1 bytes @ 0x1
  1778                           
  1779     0021                     strcpy@to:	
  1780                           ; 1 bytes @ 0x1
  1781                           
  1782     0021                     strncpy@to:	
  1783                           ; 1 bytes @ 0x1
  1784                           
  1785     0021                     clcd_print@str:	
  1786                           ; 1 bytes @ 0x1
  1787                           
  1788                           
  1789                           ; 2 bytes @ 0x1
  1790     0021                     	ds	1
  1791     0022                     ?_write_ds1307:
  1792     0022                     ?_ext_eeprom_24C02_byte_write:	
  1793                           ; 1 bytes @ 0x2
  1794                           
  1795     0022                     ?___lwdiv:	
  1796                           ; 1 bytes @ 0x2
  1797                           
  1798     0022                     read_ds1307@addr:	
  1799                           ; 2 bytes @ 0x2
  1800                           
  1801     0022                     write_ds1307@data:	
  1802                           ; 1 bytes @ 0x2
  1803                           
  1804     0022                     ext_eeprom_24C02_read@addr:	
  1805                           ; 1 bytes @ 0x2
  1806                           
  1807     0022                     ext_eeprom_24C02_byte_write@data:	
  1808                           ; 1 bytes @ 0x2
  1809                           
  1810     0022                     strncmp@s1:	
  1811                           ; 1 bytes @ 0x2
  1812                           
  1813     0022                     strncpy@cp:	
  1814                           ; 1 bytes @ 0x2
  1815                           
  1816     0022                     ___awdiv@dividend:	
  1817                           ; 1 bytes @ 0x2
  1818                           
  1819     0022                     ___awmod@dividend:	
  1820                           ; 2 bytes @ 0x2
  1821                           
  1822     0022                     ___lwdiv@divisor:	
  1823                           ; 2 bytes @ 0x2
  1824                           
  1825                           
  1826                           ; 2 bytes @ 0x2
  1827     0022                     	ds	1
  1828     0023                     read_ds1307@data:
  1829     0023                     write_ds1307@addr:	
  1830                           ; 1 bytes @ 0x3
  1831                           
  1832     0023                     clcd_print@addr:	
  1833                           ; 1 bytes @ 0x3
  1834                           
  1835     0023                     ext_eeprom_24C02_read@data:	
  1836                           ; 1 bytes @ 0x3
  1837                           
  1838     0023                     ext_eeprom_24C02_byte_write@addr:	
  1839                           ; 1 bytes @ 0x3
  1840                           
  1841                           
  1842                           ; 1 bytes @ 0x3
  1843     0023                     	ds	1
  1844     0024                     ?_ext_eeprom_24C02_str_write:
  1845     0024                     ??_clear_log:	
  1846                           ; 1 bytes @ 0x4
  1847                           
  1848     0024                     ??_get_time:	
  1849                           ; 1 bytes @ 0x4
  1850                           
  1851     0024                     init_ds1307@dummy:	
  1852                           ; 1 bytes @ 0x4
  1853                           
  1854     0024                     ___awdiv@counter:	
  1855                           ; 1 bytes @ 0x4
  1856                           
  1857     0024                     ext_eeprom_24C02_str_write@data:	
  1858                           ; 1 bytes @ 0x4
  1859                           
  1860     0024                     ___lwdiv@dividend:	
  1861                           ; 2 bytes @ 0x4
  1862                           
  1863     0024                     ___lldiv@dividend:	
  1864                           ; 2 bytes @ 0x4
  1865                           
  1866                           
  1867                           ; 4 bytes @ 0x4
  1868     0024                     	ds	1
  1869     0025                     ___awdiv@sign:
  1870                           
  1871                           ; 1 bytes @ 0x5
  1872     0025                     	ds	1
  1873     0026                     ??_ext_eeprom_24C02_str_write:
  1874     0026                     ___lwdiv@counter:	
  1875                           ; 1 bytes @ 0x6
  1876                           
  1877     0026                     ___awdiv@quotient:	
  1878                           ; 1 bytes @ 0x6
  1879                           
  1880                           
  1881                           ; 2 bytes @ 0x6
  1882     0026                     	ds	1
  1883     0027                     clear_log@reset_flag:
  1884     0027                     ext_eeprom_24C02_str_write@addr:	
  1885                           ; 1 bytes @ 0x7
  1886                           
  1887     0027                     ___lwdiv@quotient:	
  1888                           ; 1 bytes @ 0x7
  1889                           
  1890                           
  1891                           ; 2 bytes @ 0x7
  1892     0027                     	ds	1
  1893     0028                     ?_clcd_putch:
  1894     0028                     ??_log_car_event:	
  1895                           ; 1 bytes @ 0x8
  1896                           
  1897     0028                     clcd_putch@addr:	
  1898                           ; 1 bytes @ 0x8
  1899                           
  1900     0028                     ___lldiv@quotient:	
  1901                           ; 1 bytes @ 0x8
  1902                           
  1903                           
  1904                           ; 4 bytes @ 0x8
  1905     0028                     	ds	1
  1906     0029                     clcd_putch@data:
  1907     0029                     log_car_event@addr:	
  1908                           ; 1 bytes @ 0x9
  1909                           
  1910                           
  1911                           ; 1 bytes @ 0x9
  1912     0029                     	ds	1
  1913     002A                     ?_log_event:
  1914     002A                     ?_login:	
  1915                           ; 1 bytes @ 0xA
  1916                           
  1917     002A                     ?_login_menu:	
  1918                           ; 1 bytes @ 0xA
  1919                           
  1920     002A                     ?_view_log:	
  1921                           ; 1 bytes @ 0xA
  1922                           
  1923     002A                     ?_set_time:	
  1924                           ; 1 bytes @ 0xA
  1925                           
  1926     002A                     ?_change_password:	
  1927                           ; 1 bytes @ 0xA
  1928                           
  1929     002A                     ?_display_time:	
  1930                           ; 1 bytes @ 0xA
  1931                           
  1932     002A                     log_event@speed:	
  1933                           ; 1 bytes @ 0xA
  1934                           
  1935     002A                     login@key:	
  1936                           ; 1 bytes @ 0xA
  1937                           
  1938     002A                     login_menu@key:	
  1939                           ; 1 bytes @ 0xA
  1940                           
  1941     002A                     view_log@reset_flag:	
  1942                           ; 1 bytes @ 0xA
  1943                           
  1944     002A                     set_time@key:	
  1945                           ; 1 bytes @ 0xA
  1946                           
  1947     002A                     change_password@reset_flag:	
  1948                           ; 1 bytes @ 0xA
  1949                           
  1950     002A                     display_time@reset_flag:	
  1951                           ; 1 bytes @ 0xA
  1952                           
  1953                           
  1954                           ; 2 bytes @ 0xA
  1955     002A                     	ds	1
  1956     002B                     ??_log_event:
  1957     002B                     ??_login:	
  1958                           ; 1 bytes @ 0xB
  1959                           
  1960     002B                     ??_login_menu:	
  1961                           ; 1 bytes @ 0xB
  1962                           
  1963     002B                     ??_view_log:	
  1964                           ; 1 bytes @ 0xB
  1965                           
  1966     002B                     ??_set_time:	
  1967                           ; 1 bytes @ 0xB
  1968                           
  1969     002B                     ??_change_password:	
  1970                           ; 1 bytes @ 0xB
  1971                           
  1972                           
  1973                           ; 1 bytes @ 0xB
  1974     002B                     	ds	1
  1975     002C                     ?_display_dash_board:
  1976     002C                     display_dash_board@speed:	
  1977                           ; 1 bytes @ 0xC
  1978                           
  1979     002C                     set_time@reset_flag:	
  1980                           ; 1 bytes @ 0xC
  1981                           
  1982     002C                     ___lldiv@counter:	
  1983                           ; 1 bytes @ 0xC
  1984                           
  1985                           
  1986                           ; 1 bytes @ 0xC
  1987     002C                     	ds	1
  1988     002D                     ?_init_i2c:
  1989     002D                     display_dash_board@reset_flag:	
  1990                           ; 1 bytes @ 0xD
  1991                           
  1992     002D                     log_event@event:	
  1993                           ; 1 bytes @ 0xD
  1994                           
  1995     002D                     login_menu@reset_flag:	
  1996                           ; 1 bytes @ 0xD
  1997                           
  1998     002D                     init_i2c@baud:	
  1999                           ; 1 bytes @ 0xD
  2000                           
  2001     002D                     view_log@nlog:	
  2002                           ; 4 bytes @ 0xD
  2003                           
  2004                           
  2005                           ; 10 bytes @ 0xD
  2006     002D                     	ds	1
  2007     002E                     ??_display_dash_board:
  2008     002E                     login@reset_flag:	
  2009                           ; 1 bytes @ 0xE
  2010                           
  2011     002E                     change_password@key:	
  2012                           ; 1 bytes @ 0xE
  2013                           
  2014                           
  2015                           ; 1 bytes @ 0xE
  2016     002E                     	ds	1
  2017     002F                     login@k:
  2018     002F                     change_password@i:	
  2019                           ; 2 bytes @ 0xF
  2020                           
  2021                           
  2022                           ; 2 bytes @ 0xF
  2023     002F                     	ds	1
  2024     0030                     display_dash_board@event:
  2025                           
  2026                           ; 1 bytes @ 0x10
  2027     0030                     	ds	1
  2028     0031                     ??_init_i2c:
  2029                           
  2030                           ; 1 bytes @ 0x11
  2031     0031                     	ds	6
  2032     0037                     view_log@add:
  2033                           
  2034                           ; 1 bytes @ 0x17
  2035     0037                     	ds	1
  2036     0038                     view_log@key:
  2037                           
  2038                           ; 1 bytes @ 0x18
  2039     0038                     	ds	1
  2040     0039                     view_log@i:
  2041                           
  2042                           ; 2 bytes @ 0x19
  2043     0039                     	ds	2
  2044     003B                     ??_main:
  2045                           
  2046                           ; 1 bytes @ 0x1B
  2047     003B                     	ds	4
  2048                           
  2049                           	psect	maintext
  2050     004A                     __pmaintext:	
  2051 ;;
  2052 ;;Main: autosize = 0, tempsize = 4, incstack = 0, save=0
  2053 ;;
  2054 ;; *************** function _main *****************
  2055 ;; Defined at:
  2056 ;;		line 27 in file "main.c"
  2057 ;; Parameters:    Size  Location     Type
  2058 ;;		None
  2059 ;; Auto vars:     Size  Location     Type
  2060 ;;  gear           12    0[BANK1 ] PTR unsigned char [6]
  2061 ;;		 -> STR_6(3), STR_5(3), STR_4(3), STR_3(3), 
  2062 ;;		 -> STR_2(3), STR_1(3), 
  2063 ;;  event           3   13[BANK1 ] unsigned char [3]
  2064 ;;  gr              2   16[BANK1 ] int 
  2065 ;;  key             1   21[BANK1 ] unsigned char 
  2066 ;;  reset_flag      1   20[BANK1 ] unsigned char 
  2067 ;;  speed           1   19[BANK1 ] unsigned char 
  2068 ;;  control_flag    1   18[BANK1 ] unsigned char 
  2069 ;;  menu_pos        1   12[BANK1 ] unsigned char 
  2070 ;; Return value:  Size  Location     Type
  2071 ;;                  1    wreg      void 
  2072 ;; Registers used:
  2073 ;;		wreg, fsr0l, fsr0h, status,2, status,0, btemp+1, pclath, cstack
  2074 ;; Tracked objects:
  2075 ;;		On entry : B00/0
  2076 ;;		On exit  : 0/0
  2077 ;;		Unchanged: 0/0
  2078 ;; Data sizes:     COMMON   BANK0   BANK1   BANK3   BANK2
  2079 ;;      Params:         0       0       0       0       0
  2080 ;;      Locals:         0       0      22       0       0
  2081 ;;      Temps:          0       4       0       0       0
  2082 ;;      Totals:         0       4      22       0       0
  2083 ;;Total ram usage:       26 bytes
  2084 ;; Hardware stack levels required when called: 8
  2085 ;; This function calls:
  2086 ;;		___lwdiv
  2087 ;;		_change_password
  2088 ;;		_clcd_print
  2089 ;;		_clcd_putch
  2090 ;;		_clcd_write
  2091 ;;		_clear_log
  2092 ;;		_clear_screen
  2093 ;;		_display_dash_board
  2094 ;;		_ext_eeprom_24C02_str_write
  2095 ;;		_init_config
  2096 ;;		_log_event
  2097 ;;		_login
  2098 ;;		_login_menu
  2099 ;;		_read_adc
  2100 ;;		_read_digital_keypad
  2101 ;;		_set_time
  2102 ;;		_strcpy
  2103 ;;		_view_log
  2104 ;; This function is called by:
  2105 ;;		Startup code after reset
  2106 ;; This function uses a non-reentrant model
  2107 ;;
  2108                           
  2109     004A                     _main:	
  2110                           ;psect for function _main
  2111                           
  2112     004A                     l4223:	
  2113                           ;incstack = 0
  2114                           ; Regs used in _main: [wreg-fsr0h+status,2+status,0+btemp+1+pclath+cstack]
  2115                           
  2116                           
  2117                           ;main.c: 29:     while (1)
  2118     004A  160A  118A  27A8  120A  118A  	fcall	_init_config
  2119     004F                     l4225:
  2120                           
  2121                           ;main.c: 30:     {
  2122     004F  1683               	bsf	3,5	;RP0=1, select bank1
  2123     0050  1303               	bcf	3,6	;RP1=0, select bank1
  2124     0051  01E7               	clrf	main@control_flag^(0+128)
  2125     0052  0AE7               	incf	main@control_flag^(0+128),f
  2126     0053                     l4227:
  2127     0053                     l4229:
  2128                           
  2129                           ;main.c: 32: ;main.c: 33:         speed = read_adc()/10;
  2130     0053  0852               	movf	main@F1007^(0+128),w
  2131     0054  00E2               	movwf	main@event^(0+128)
  2132     0055  0853               	movf	(main@F1007+1)^(0+128),w
  2133     0056  00E3               	movwf	(main@event+1)^(0+128)
  2134     0057  0854               	movf	(main@F1007+2)^(0+128),w
  2135     0058  00E4               	movwf	(main@event+2)^(0+128)
  2136     0059                     l4231:
  2137                           
  2138                           ;main.c: 34:         if(speed > 99)
  2139     0059  30D5               	movlw	main@gear& (0+255)
  2140     005A  0084               	movwf	4
  2141     005B  30BC               	movlw	low main@F1009
  2142     005C  1283               	bcf	3,5	;RP0=0, select bank0
  2143     005D  1303               	bcf	3,6	;RP1=0, select bank0
  2144     005E  00BB               	movwf	??_main
  2145     005F  0804               	movf	4,w
  2146     0060  00BC               	movwf	??_main+1
  2147     0061  300C               	movlw	12
  2148     0062  00BD               	movwf	??_main+2
  2149     0063                     u4060:
  2150     0063  083B               	movf	??_main,w
  2151     0064  0084               	movwf	4
  2152     0065  1383               	bcf	3,7	;select IRP bank1
  2153     0066  0800               	movf	0,w
  2154     0067  00BE               	movwf	??_main+3
  2155     0068  0ABB               	incf	??_main,f
  2156     0069  083C               	movf	??_main+1,w
  2157     006A  0084               	movwf	4
  2158     006B  083E               	movf	??_main+3,w
  2159     006C  0080               	movwf	0
  2160     006D  0ABC               	incf	??_main+1,f
  2161     006E  0BBD               	decfsz	??_main+2,f
  2162     006F  2863               	goto	u4060
  2163     0070                     l4233:
  2164                           
  2165                           ;main.c: 35:         {
  2166     0070  1683               	bsf	3,5	;RP0=1, select bank1
  2167     0071  1303               	bcf	3,6	;RP1=0, select bank1
  2168     0072  01E5               	clrf	main@gr^(0+128)
  2169     0073  01E6               	clrf	(main@gr+1)^(0+128)
  2170     0074                     l4235:
  2171                           
  2172                           ;main.c: 36:             speed = 99;;main.c: 38: 
  2173     0074  1283               	bcf	3,5	;RP0=0, select bank0
  2174     0075  1303               	bcf	3,6	;RP1=0, select bank0
  2175     0076  01AA               	clrf	log_event@speed
  2176     0077  30E2               	movlw	(low (main@event| 0))& (0+255)
  2177     0078  120A  158A  228F  120A  118A  	fcall	_log_event
  2178     007D                     l4237:
  2179                           
  2180                           ;main.c: 40:         {
  2181     007D  3025               	movlw	low (STR_7| (0+32768))
  2182     007E  1283               	bcf	3,5	;RP0=0, select bank0
  2183     007F  1303               	bcf	3,6	;RP1=0, select bank0
  2184     0080  00A4               	movwf	ext_eeprom_24C02_str_write@data
  2185     0081  3087               	movlw	high (STR_7| (0+32768))
  2186     0082  00A5               	movwf	ext_eeprom_24C02_str_write@data+1
  2187     0083  3000               	movlw	0
  2188     0084  120A  158A  200D  120A  118A  	fcall	_ext_eeprom_24C02_str_write
  2189     0089                     l4239:
  2190                           
  2191                           ;main.c: 43:         };main.c: 44:         else if( key == 0x3D && gr < 6)
  2192     0089  3001               	movlw	1
  2193     008A  160A  118A  277E  120A  118A  	fcall	_read_digital_keypad
  2194     008F  1683               	bsf	3,5	;RP0=1, select bank1
  2195     0090  1303               	bcf	3,6	;RP1=0, select bank1
  2196     0091  00EA               	movwf	main@key^(0+128)
  2197     0092                     l4241:
  2198                           
  2199                           ;main.c: 46:             strcpy(event,gear[gr]);
  2200     0092  300A               	movlw	10
  2201     0093  1283               	bcf	3,5	;RP0=0, select bank0
  2202     0094  1303               	bcf	3,6	;RP1=0, select bank0
  2203     0095  00A2               	movwf	___lwdiv@divisor
  2204     0096  3000               	movlw	0
  2205     0097  00A3               	movwf	___lwdiv@divisor+1
  2206     0098  160A  118A  265A  120A  118A  	fcall	_read_adc
  2207     009D  0874               	movf	?_read_adc+1,w
  2208     009E  1283               	bcf	3,5	;RP0=0, select bank0
  2209     009F  1303               	bcf	3,6	;RP1=0, select bank0
  2210     00A0  00A5               	movwf	___lwdiv@dividend+1
  2211     00A1  0873               	movf	?_read_adc,w
  2212     00A2  00A4               	movwf	___lwdiv@dividend
  2213     00A3  120A  158A  21FC  120A  118A  	fcall	___lwdiv
  2214     00A8  1283               	bcf	3,5	;RP0=0, select bank0
  2215     00A9  1303               	bcf	3,6	;RP1=0, select bank0
  2216     00AA  0822               	movf	?___lwdiv,w
  2217     00AB  1683               	bsf	3,5	;RP0=1, select bank1
  2218     00AC  1303               	bcf	3,6	;RP1=0, select bank1
  2219     00AD  00E8               	movwf	main@speed^(0+128)
  2220     00AE                     l4243:
  2221                           
  2222                           ;main.c: 47:             gr++;
  2223     00AE  3064               	movlw	100
  2224     00AF  0268               	subwf	main@speed^(0+128),w
  2225     00B0  1C03               	skipc
  2226     00B1  28B3               	goto	u4071
  2227     00B2  28B4               	goto	u4070
  2228     00B3                     u4071:
  2229     00B3  28B6               	goto	l4247
  2230     00B4                     u4070:
  2231     00B4                     l4245:
  2232                           
  2233                           ;main.c: 48:             log_event(event,speed);;main.c: 49:         }
  2234     00B4  3063               	movlw	99
  2235     00B5  00E8               	movwf	main@speed^(0+128)
  2236     00B6                     l4247:
  2237                           
  2238                           ;main.c: 52:             gr--;
  2239     00B6  303E               	movlw	62
  2240     00B7  066A               	xorwf	main@key^(0+128),w
  2241     00B8  1D03               	btfss	3,2
  2242     00B9  28BB               	goto	u4081
  2243     00BA  28BC               	goto	u4080
  2244     00BB                     u4081:
  2245     00BB  28D3               	goto	l4251
  2246     00BC                     u4080:
  2247     00BC                     l4249:
  2248                           
  2249                           ;main.c: 53:             strcpy(event,gear[gr]);;main.c: 54:             log_event(event
      +                          ,speed);
  2250     00BC  302A               	movlw	low (STR_8| (0+32768))
  2251     00BD  00F3               	movwf	strcpy@from
  2252     00BE  3087               	movlw	high (STR_8| (0+32768))
  2253     00BF  00F4               	movwf	strcpy@from+1
  2254     00C0  30E2               	movlw	(low (main@event| 0))& (0+255)
  2255     00C1  160A  118A  2759  120A  118A  	fcall	_strcpy
  2256                           
  2257                           ;main.c: 55:         }
  2258     00C6  1683               	bsf	3,5	;RP0=1, select bank1
  2259     00C7  1303               	bcf	3,6	;RP1=0, select bank1
  2260     00C8  0868               	movf	main@speed^(0+128),w
  2261     00C9  1283               	bcf	3,5	;RP0=0, select bank0
  2262     00CA  1303               	bcf	3,6	;RP1=0, select bank0
  2263     00CB  00AA               	movwf	log_event@speed
  2264     00CC  30E2               	movlw	(low (main@event| 0))& (0+255)
  2265     00CD  120A  158A  228F  120A  118A  	fcall	_log_event
  2266                           
  2267                           ;main.c: 56:         else if((key == 0x37 || key == 0x2F) && (control_flag == 0x01))
  2268     00D2  2AFA               	goto	l4399
  2269     00D3                     l4251:
  2270     00D3  303D               	movlw	61
  2271     00D4  066A               	xorwf	main@key^(0+128),w
  2272     00D5  1D03               	btfss	3,2
  2273     00D6  28D8               	goto	u4091
  2274     00D7  28D9               	goto	u4090
  2275     00D8                     u4091:
  2276     00D8  290F               	goto	l4261
  2277     00D9                     u4090:
  2278     00D9                     l4253:
  2279     00D9  0866               	movf	(main@gr+1)^(0+128),w
  2280     00DA  3A80               	xorlw	128
  2281     00DB  00FF               	movwf	btemp+1
  2282     00DC  3080               	movlw	128
  2283     00DD  027F               	subwf	btemp+1,w
  2284     00DE  1D03               	skipz
  2285     00DF  28E2               	goto	u4105
  2286     00E0  3006               	movlw	6
  2287     00E1  0265               	subwf	main@gr^(0+128),w
  2288     00E2                     u4105:
  2289     00E2  1803               	skipnc
  2290     00E3  28E5               	goto	u4101
  2291     00E4  28E6               	goto	u4100
  2292     00E5                     u4101:
  2293     00E5  290F               	goto	l4261
  2294     00E6                     u4100:
  2295     00E6                     l4255:
  2296                           
  2297                           ;main.c: 58:             clear_screen();;main.c: 59:             control_flag = 0x02;
  2298     00E6  1683               	bsf	3,5	;RP0=1, select bank1
  2299     00E7  1303               	bcf	3,6	;RP1=0, select bank1
  2300     00E8  0865               	movf	main@gr^(0+128),w
  2301     00E9  1283               	bcf	3,5	;RP0=0, select bank0
  2302     00EA  1303               	bcf	3,6	;RP1=0, select bank0
  2303     00EB  00BB               	movwf	??_main
  2304     00EC  073B               	addwf	??_main,w
  2305     00ED  3ED5               	addlw	(low (main@gear| 0))& (0+255)
  2306     00EE  0084               	movwf	4
  2307     00EF  1383               	bcf	3,7	;select IRP bank1
  2308     00F0  0800               	movf	0,w
  2309     00F1  00F3               	movwf	strcpy@from
  2310     00F2  0A84               	incf	4,f
  2311     00F3  0800               	movf	0,w
  2312     00F4  0384               	decf	4,f
  2313     00F5  00F4               	movwf	strcpy@from+1
  2314     00F6  30E2               	movlw	(low (main@event| 0))& (0+255)
  2315     00F7  160A  118A  2759  120A  118A  	fcall	_strcpy
  2316     00FC                     l4257:
  2317                           
  2318                           ;main.c: 60:             reset_flag = 0x01;
  2319     00FC  3001               	movlw	1
  2320     00FD  1683               	bsf	3,5	;RP0=1, select bank1
  2321     00FE  1303               	bcf	3,6	;RP1=0, select bank1
  2322     00FF  07E5               	addwf	main@gr^(0+128),f
  2323     0100  1803               	skipnc
  2324     0101  0AE6               	incf	(main@gr+1)^(0+128),f
  2325     0102  3000               	movlw	0
  2326     0103  07E6               	addwf	(main@gr+1)^(0+128),f
  2327     0104                     l4259:
  2328                           
  2329                           ;main.c: 61:             clcd_print("Enter Password ",(0x80 + 1));
  2330     0104  0868               	movf	main@speed^(0+128),w
  2331     0105  1283               	bcf	3,5	;RP0=0, select bank0
  2332     0106  1303               	bcf	3,6	;RP1=0, select bank0
  2333     0107  00AA               	movwf	log_event@speed
  2334     0108  30E2               	movlw	(low (main@event| 0))& (0+255)
  2335     0109  120A  158A  228F  120A  118A  	fcall	_log_event
  2336                           
  2337                           ;main.c: 62:             clcd_putch(' ',(0xC0 + 2));
  2338     010E  2AFA               	goto	l4399
  2339     010F                     l4261:
  2340     010F  303B               	movlw	59
  2341     0110  1683               	bsf	3,5	;RP0=1, select bank1
  2342     0111  1303               	bcf	3,6	;RP1=0, select bank1
  2343     0112  066A               	xorwf	main@key^(0+128),w
  2344     0113  1D03               	btfss	3,2
  2345     0114  2916               	goto	u4111
  2346     0115  2917               	goto	u4110
  2347     0116                     u4111:
  2348     0116  294D               	goto	l4271
  2349     0117                     u4110:
  2350     0117                     l4263:
  2351     0117  0866               	movf	(main@gr+1)^(0+128),w
  2352     0118  3A80               	xorlw	128
  2353     0119  00FF               	movwf	btemp+1
  2354     011A  3080               	movlw	128
  2355     011B  027F               	subwf	btemp+1,w
  2356     011C  1D03               	skipz
  2357     011D  2920               	goto	u4125
  2358     011E  3001               	movlw	1
  2359     011F  0265               	subwf	main@gr^(0+128),w
  2360     0120                     u4125:
  2361     0120  1C03               	skipc
  2362     0121  2923               	goto	u4121
  2363     0122  2924               	goto	u4120
  2364     0123                     u4121:
  2365     0123  294D               	goto	l4271
  2366     0124                     u4120:
  2367     0124                     l4265:
  2368                           
  2369                           ;main.c: 64:             _delay((unsigned long)((100)*(20000000/4000000.0)));;main.c: 65
      +                          :             TMR2ON = 1;
  2370     0124  30FF               	movlw	255
  2371     0125  1683               	bsf	3,5	;RP0=1, select bank1
  2372     0126  1303               	bcf	3,6	;RP1=0, select bank1
  2373     0127  07E5               	addwf	main@gr^(0+128),f
  2374     0128  1803               	skipnc
  2375     0129  0AE6               	incf	(main@gr+1)^(0+128),f
  2376     012A  30FF               	movlw	255
  2377     012B  07E6               	addwf	(main@gr+1)^(0+128),f
  2378     012C                     l4267:
  2379                           
  2380                           ;main.c: 66:         }
  2381     012C  0865               	movf	main@gr^(0+128),w
  2382     012D  1283               	bcf	3,5	;RP0=0, select bank0
  2383     012E  1303               	bcf	3,6	;RP1=0, select bank0
  2384     012F  00BB               	movwf	??_main
  2385     0130  073B               	addwf	??_main,w
  2386     0131  3ED5               	addlw	(low (main@gear| 0))& (0+255)
  2387     0132  0084               	movwf	4
  2388     0133  1383               	bcf	3,7	;select IRP bank1
  2389     0134  0800               	movf	0,w
  2390     0135  00F3               	movwf	strcpy@from
  2391     0136  0A84               	incf	4,f
  2392     0137  0800               	movf	0,w
  2393     0138  0384               	decf	4,f
  2394     0139  00F4               	movwf	strcpy@from+1
  2395     013A  30E2               	movlw	(low (main@event| 0))& (0+255)
  2396     013B  160A  118A  2759  120A  118A  	fcall	_strcpy
  2397     0140                     l4269:
  2398                           
  2399                           ;main.c: 67:         else if((key == 0x1F) && (control_flag == 0x04))
  2400     0140  1683               	bsf	3,5	;RP0=1, select bank1
  2401     0141  1303               	bcf	3,6	;RP1=0, select bank1
  2402     0142  0868               	movf	main@speed^(0+128),w
  2403     0143  1283               	bcf	3,5	;RP0=0, select bank0
  2404     0144  1303               	bcf	3,6	;RP1=0, select bank0
  2405     0145  00AA               	movwf	log_event@speed
  2406     0146  30E2               	movlw	(low (main@event| 0))& (0+255)
  2407     0147  120A  158A  228F  120A  118A  	fcall	_log_event
  2408                           
  2409                           ;main.c: 68:         {
  2410     014C  2AFA               	goto	l4399
  2411     014D                     l4271:
  2412     014D  3037               	movlw	55
  2413     014E  1683               	bsf	3,5	;RP0=1, select bank1
  2414     014F  1303               	bcf	3,6	;RP1=0, select bank1
  2415     0150  066A               	xorwf	main@key^(0+128),w
  2416     0151  1903               	btfsc	3,2
  2417     0152  2954               	goto	u4131
  2418     0153  2955               	goto	u4130
  2419     0154                     u4131:
  2420     0154  295B               	goto	l4275
  2421     0155                     u4130:
  2422     0155                     l4273:
  2423     0155  302F               	movlw	47
  2424     0156  066A               	xorwf	main@key^(0+128),w
  2425     0157  1D03               	btfss	3,2
  2426     0158  295A               	goto	u4141
  2427     0159  295B               	goto	u4140
  2428     015A                     u4141:
  2429     015A  2994               	goto	l4293
  2430     015B                     u4140:
  2431     015B                     l4275:
  2432     015B  0367               	decf	main@control_flag^(0+128),w
  2433     015C  1D03               	btfss	3,2
  2434     015D  295F               	goto	u4151
  2435     015E  2960               	goto	u4150
  2436     015F                     u4151:
  2437     015F  2994               	goto	l4293
  2438     0160                     u4150:
  2439     0160                     l4277:
  2440                           
  2441                           ;main.c: 70:             {;main.c: 71:                 case 0:
  2442     0160  160A  118A  2635  120A  118A  	fcall	_clear_screen
  2443     0165                     l4279:
  2444                           
  2445                           ;main.c: 72:                     clear_screen();
  2446     0165  3002               	movlw	2
  2447     0166  1683               	bsf	3,5	;RP0=1, select bank1
  2448     0167  1303               	bcf	3,6	;RP1=0, select bank1
  2449     0168  00E7               	movwf	main@control_flag^(0+128)
  2450     0169                     l4281:
  2451                           
  2452                           ;main.c: 73:                     clcd_print("# TIME     E  SP",(0x80 + 0));
  2453     0169  01E9               	clrf	main@reset_flag^(0+128)
  2454     016A  0AE9               	incf	main@reset_flag^(0+128),f
  2455     016B                     l4283:
  2456                           
  2457                           ;main.c: 74:                     control_flag=0x08;
  2458     016B  3078               	movlw	low (STR_9| (0+32768))
  2459     016C  1283               	bcf	3,5	;RP0=0, select bank0
  2460     016D  1303               	bcf	3,6	;RP1=0, select bank0
  2461     016E  00A1               	movwf	clcd_print@str
  2462     016F  3086               	movlw	high (STR_9| (0+32768))
  2463     0170  00A2               	movwf	clcd_print@str+1
  2464     0171  3081               	movlw	129
  2465     0172  00A3               	movwf	clcd_print@addr
  2466     0173  120A  158A  203C  120A  118A  	fcall	_clcd_print
  2467     0178                     l4285:
  2468                           
  2469                           ;main.c: 75:                     reset_flag=0x08;
  2470     0178  30C2               	movlw	194
  2471     0179  1283               	bcf	3,5	;RP0=0, select bank0
  2472     017A  1303               	bcf	3,6	;RP1=0, select bank0
  2473     017B  00A8               	movwf	clcd_putch@addr
  2474     017C  3020               	movlw	32
  2475     017D  160A  118A  266E  120A  118A  	fcall	_clcd_putch
  2476     0182                     l4287:
  2477                           
  2478                           ;main.c: 76:                     break;
  2479     0182  01F3               	clrf	clcd_write@mode
  2480     0183  300F               	movlw	15
  2481     0184  160A  118A  26EF  120A  118A  	fcall	_clcd_write
  2482     0189                     l4289:
  2483                           
  2484                           ;main.c: 77:                 case 1:
  2485     0189  30A5               	movlw	165
  2486     018A  1283               	bcf	3,5	;RP0=0, select bank0
  2487     018B  1303               	bcf	3,6	;RP1=0, select bank0
  2488     018C  00BB               	movwf	??_main
  2489     018D                     u4217:
  2490     018D  0BBB               	decfsz	??_main,f
  2491     018E  298D               	goto	u4217
  2492     018F  2990               	nop2
  2493     0190                     l4291:
  2494                           
  2495                           ;main.c: 78:                     clear_screen();
  2496     0190  1283               	bcf	3,5	;RP0=0, select bank0
  2497     0191  1303               	bcf	3,6	;RP1=0, select bank0
  2498     0192  1512               	bsf	18,2	;volatile
  2499                           
  2500                           ;main.c: 79:                     control_flag = 0x10;
  2501     0193  2AFA               	goto	l4399
  2502     0194                     l4293:
  2503     0194  301F               	movlw	31
  2504     0195  066A               	xorwf	main@key^(0+128),w
  2505     0196  1D03               	btfss	3,2
  2506     0197  2999               	goto	u4161
  2507     0198  299A               	goto	u4160
  2508     0199                     u4161:
  2509     0199  2AFA               	goto	l4399
  2510     019A                     u4160:
  2511     019A                     l4295:
  2512     019A  3004               	movlw	4
  2513     019B  0667               	xorwf	main@control_flag^(0+128),w
  2514     019C  1D03               	btfss	3,2
  2515     019D  299F               	goto	u4171
  2516     019E  29A0               	goto	u4170
  2517     019F                     u4171:
  2518     019F  2AFA               	goto	l4399
  2519     01A0                     u4170:
  2520     01A0  29F0               	goto	l4331
  2521     01A1                     l4299:
  2522                           
  2523                           ;main.c: 85:                 case 3:
  2524     01A1  160A  118A  2635  120A  118A  	fcall	_clear_screen
  2525     01A6                     l4301:
  2526                           
  2527                           ;main.c: 86:                     clear_screen();
  2528     01A6  3047               	movlw	low (STR_10| (0+32768))
  2529     01A7  1283               	bcf	3,5	;RP0=0, select bank0
  2530     01A8  1303               	bcf	3,6	;RP1=0, select bank0
  2531     01A9  00A1               	movwf	clcd_print@str
  2532     01AA  3086               	movlw	high (STR_10| (0+32768))
  2533     01AB  00A2               	movwf	clcd_print@str+1
  2534     01AC  3080               	movlw	128
  2535     01AD  00A3               	movwf	clcd_print@addr
  2536     01AE  120A  158A  203C  120A  118A  	fcall	_clcd_print
  2537     01B3                     l4303:
  2538                           
  2539                           ;main.c: 87:                     clcd_print(" SET TIME",(0x80 + 0));
  2540     01B3  3008               	movlw	8
  2541     01B4  1683               	bsf	3,5	;RP0=1, select bank1
  2542     01B5  1303               	bcf	3,6	;RP1=0, select bank1
  2543     01B6  00E7               	movwf	main@control_flag^(0+128)
  2544     01B7                     l4305:
  2545                           
  2546                           ;main.c: 88:                     control_flag = 0x40;
  2547     01B7  3008               	movlw	8
  2548     01B8  00E9               	movwf	main@reset_flag^(0+128)
  2549                           
  2550                           ;main.c: 89:                     reset_flag=0x10;
  2551     01B9  2AFA               	goto	l4399
  2552     01BA                     l4307:
  2553                           
  2554                           ;main.c: 91:                 case 4:
  2555     01BA  160A  118A  2635  120A  118A  	fcall	_clear_screen
  2556     01BF                     l4309:
  2557                           
  2558                           ;main.c: 92:                     clear_screen();
  2559     01BF  3010               	movlw	16
  2560     01C0  1683               	bsf	3,5	;RP0=1, select bank1
  2561     01C1  1303               	bcf	3,6	;RP1=0, select bank1
  2562     01C2  00E7               	movwf	main@control_flag^(0+128)
  2563     01C3                     l4311:
  2564                           
  2565                           ;main.c: 93:                     control_flag=0x80;
  2566     01C3  3004               	movlw	4
  2567     01C4  00E9               	movwf	main@reset_flag^(0+128)
  2568                           
  2569                           ;main.c: 94:                     reset_flag=0x80;
  2570     01C5  2AFA               	goto	l4399
  2571     01C6                     l4313:
  2572                           
  2573                           ;main.c: 96:             }
  2574     01C6  3020               	movlw	32
  2575     01C7  1683               	bsf	3,5	;RP0=1, select bank1
  2576     01C8  1303               	bcf	3,6	;RP1=0, select bank1
  2577     01C9  00E7               	movwf	main@control_flag^(0+128)
  2578                           
  2579                           ;main.c: 97:         }
  2580     01CA  2AFA               	goto	l4399
  2581     01CB                     l4315:
  2582                           
  2583                           ;main.c: 99:         {
  2584     01CB  160A  118A  2635  120A  118A  	fcall	_clear_screen
  2585     01D0                     l4317:
  2586                           
  2587                           ;main.c: 100:             case 0x01:
  2588     01D0  3000               	movlw	low (STR_11| (0+32768))
  2589     01D1  1283               	bcf	3,5	;RP0=0, select bank0
  2590     01D2  1303               	bcf	3,6	;RP1=0, select bank0
  2591     01D3  00A1               	movwf	clcd_print@str
  2592     01D4  3087               	movlw	high (STR_11| (0+32768))
  2593     01D5  00A2               	movwf	clcd_print@str+1
  2594     01D6  3080               	movlw	128
  2595     01D7  00A3               	movwf	clcd_print@addr
  2596     01D8  120A  158A  203C  120A  118A  	fcall	_clcd_print
  2597     01DD                     l4319:
  2598                           
  2599                           ;main.c: 101:                 display_dash_board(event,speed,reset_flag);
  2600     01DD  3040               	movlw	64
  2601     01DE  1683               	bsf	3,5	;RP0=1, select bank1
  2602     01DF  1303               	bcf	3,6	;RP1=0, select bank1
  2603     01E0  00E7               	movwf	main@control_flag^(0+128)
  2604     01E1                     l4321:
  2605                           
  2606                           ;main.c: 102:                 break;
  2607     01E1  3010               	movlw	16
  2608     01E2  00E9               	movwf	main@reset_flag^(0+128)
  2609                           
  2610                           ;main.c: 103:             case 0x02:
  2611     01E3  2AFA               	goto	l4399
  2612     01E4                     l4323:
  2613                           
  2614                           ;main.c: 105:                 {
  2615     01E4  160A  118A  2635  120A  118A  	fcall	_clear_screen
  2616     01E9                     l4325:
  2617                           
  2618                           ;main.c: 106:                     case 0x03:
  2619     01E9  3080               	movlw	128
  2620     01EA  1683               	bsf	3,5	;RP0=1, select bank1
  2621     01EB  1303               	bcf	3,6	;RP1=0, select bank1
  2622     01EC  00E7               	movwf	main@control_flag^(0+128)
  2623     01ED                     l4327:
  2624                           
  2625                           ;main.c: 107:                         control_flag=0x01;
  2626     01ED  3080               	movlw	128
  2627     01EE  00E9               	movwf	main@reset_flag^(0+128)
  2628                           
  2629                           ;main.c: 108:                         clcd_write(0x0C, 0);
  2630     01EF  2AFA               	goto	l4399
  2631     01F0                     l4331:
  2632     01F0  0861               	movf	main@menu_pos^(0+128),w
  2633     01F1  1283               	bcf	3,5	;RP0=0, select bank0
  2634     01F2  1303               	bcf	3,6	;RP1=0, select bank0
  2635     01F3  00BB               	movwf	??_main
  2636     01F4  01BC               	clrf	??_main+1
  2637                           
  2638                           ; Switch on 2 bytes has been partitioned into a top level switch of size 1, and 1 sub-sw
      +                          itches
  2639                           ; Switch size 1, requested type "simple"
  2640                           ; Number of cases is 1, Range of values is 0 to 0
  2641                           ; switch strategies available:
  2642                           ; Name         Instructions Cycles
  2643                           ; simple_byte            4     3 (average)
  2644                           ; direct_byte           11     8 (fixed)
  2645                           ; jumptable            260     6 (fixed)
  2646                           ;	Chosen strategy is simple_byte
  2647     01F5  083C               	movf	??_main+1,w
  2648     01F6  3A00               	xorlw	0	; case 0
  2649     01F7  1903               	skipnz
  2650     01F8  29FA               	goto	l4499
  2651     01F9  2A0B               	goto	l71
  2652     01FA                     l4499:
  2653                           
  2654                           ; Switch size 1, requested type "simple"
  2655                           ; Number of cases is 5, Range of values is 0 to 4
  2656                           ; switch strategies available:
  2657                           ; Name         Instructions Cycles
  2658                           ; simple_byte           16     9 (average)
  2659                           ; direct_byte           23     8 (fixed)
  2660                           ; jumptable            260     6 (fixed)
  2661                           ;	Chosen strategy is simple_byte
  2662     01FA  083B               	movf	??_main,w
  2663     01FB  3A00               	xorlw	0	; case 0
  2664     01FC  1903               	skipnz
  2665     01FD  29A1               	goto	l4299
  2666     01FE  3A01               	xorlw	1	; case 1
  2667     01FF  1903               	skipnz
  2668     0200  29BA               	goto	l4307
  2669     0201  3A03               	xorlw	3	; case 2
  2670     0202  1903               	skipnz
  2671     0203  29C6               	goto	l4313
  2672     0204  3A01               	xorlw	1	; case 3
  2673     0205  1903               	skipnz
  2674     0206  29CB               	goto	l4315
  2675     0207  3A07               	xorlw	7	; case 4
  2676     0208  1903               	skipnz
  2677     0209  29E4               	goto	l4323
  2678     020A  2A0B               	goto	l71
  2679     020B                     l71:
  2680     020B  2AFA               	goto	l4399
  2681     020C                     l4333:
  2682                           
  2683                           ;main.c: 114:                         reset_flag=0x05;
  2684     020C  1683               	bsf	3,5	;RP0=1, select bank1
  2685     020D  1303               	bcf	3,6	;RP1=0, select bank1
  2686     020E  0868               	movf	main@speed^(0+128),w
  2687     020F  1283               	bcf	3,5	;RP0=0, select bank0
  2688     0210  1303               	bcf	3,6	;RP1=0, select bank0
  2689     0211  00AC               	movwf	display_dash_board@speed
  2690     0212  1683               	bsf	3,5	;RP0=1, select bank1
  2691     0213  1303               	bcf	3,6	;RP1=0, select bank1
  2692     0214  0869               	movf	main@reset_flag^(0+128),w
  2693     0215  1283               	bcf	3,5	;RP0=0, select bank0
  2694     0216  1303               	bcf	3,6	;RP1=0, select bank0
  2695     0217  00AD               	movwf	display_dash_board@reset_flag
  2696     0218  30E2               	movlw	(low (main@event| 0))& (0+255)
  2697     0219  120A  158A  2400  120A  118A  	fcall	_display_dash_board
  2698                           
  2699                           ;main.c: 115:                         continue;
  2700     021E  2B20               	goto	l4401
  2701     021F                     l89:	
  2702                           ;main.c: 118:                 break;;main.c: 119:             case 0x04:
  2703                           
  2704                           
  2705                           ;main.c: 120:                 clcd_write(0x0C, 0);
  2706     021F  1683               	bsf	3,5	;RP0=1, select bank1
  2707     0220  1303               	bcf	3,6	;RP1=0, select bank1
  2708     0221  01E7               	clrf	main@control_flag^(0+128)
  2709     0222  0AE7               	incf	main@control_flag^(0+128),f
  2710     0223                     l4335:
  2711                           
  2712                           ;main.c: 121:                  _delay((unsigned long)((100)*(20000000/4000000.0)));
  2713     0223  01F3               	clrf	clcd_write@mode
  2714     0224  300C               	movlw	12
  2715     0225  160A  118A  26EF  120A  118A  	fcall	_clcd_write
  2716     022A                     l4337:
  2717                           
  2718                           ;main.c: 122:                 menu_pos=login_menu(reset_flag,key);
  2719     022A  30A5               	movlw	165
  2720     022B  1283               	bcf	3,5	;RP0=0, select bank0
  2721     022C  1303               	bcf	3,6	;RP1=0, select bank0
  2722     022D  00BB               	movwf	??_main
  2723     022E                     u4227:
  2724     022E  0BBB               	decfsz	??_main,f
  2725     022F  2A2E               	goto	u4227
  2726     0230  2A31               	nop2
  2727     0231                     l4339:
  2728                           
  2729                           ;main.c: 123:                 break;
  2730     0231  1283               	bcf	3,5	;RP0=0, select bank0
  2731     0232  1303               	bcf	3,6	;RP1=0, select bank0
  2732     0233  1112               	bcf	18,2	;volatile
  2733                           
  2734                           ;main.c: 124:             case 0x08:
  2735     0234  2B20               	goto	l4401
  2736     0235                     l4341:
  2737                           
  2738                           ;main.c: 126:                 {
  2739     0235  3004               	movlw	4
  2740     0236  1683               	bsf	3,5	;RP0=1, select bank1
  2741     0237  1303               	bcf	3,6	;RP1=0, select bank1
  2742     0238  00E7               	movwf	main@control_flag^(0+128)
  2743                           
  2744                           ;main.c: 127:                     clear_screen();
  2745     0239  3005               	movlw	5
  2746     023A  00E9               	movwf	main@reset_flag^(0+128)
  2747                           
  2748                           ;main.c: 128:                     control_flag=0x04;
  2749     023B  2889               	goto	l4239
  2750     023C                     l4347:
  2751     023C  1683               	bsf	3,5	;RP0=1, select bank1
  2752     023D  1303               	bcf	3,6	;RP1=0, select bank1
  2753     023E  086A               	movf	main@key^(0+128),w
  2754     023F  1283               	bcf	3,5	;RP0=0, select bank0
  2755     0240  1303               	bcf	3,6	;RP1=0, select bank0
  2756     0241  00AA               	movwf	login@key
  2757     0242  1683               	bsf	3,5	;RP0=1, select bank1
  2758     0243  1303               	bcf	3,6	;RP1=0, select bank1
  2759     0244  0869               	movf	main@reset_flag^(0+128),w
  2760     0245  120A  118A  2327  120A  118A  	fcall	_login
  2761     024A  1283               	bcf	3,5	;RP0=0, select bank0
  2762     024B  1303               	bcf	3,6	;RP1=0, select bank0
  2763     024C  00BB               	movwf	??_main
  2764     024D  01BC               	clrf	??_main+1
  2765                           
  2766                           ; Switch on 2 bytes has been partitioned into a top level switch of size 1, and 1 sub-sw
      +                          itches
  2767                           ; Switch size 1, requested type "simple"
  2768                           ; Number of cases is 1, Range of values is 0 to 0
  2769                           ; switch strategies available:
  2770                           ; Name         Instructions Cycles
  2771                           ; simple_byte            4     3 (average)
  2772                           ; direct_byte           11     8 (fixed)
  2773                           ; jumptable            260     6 (fixed)
  2774                           ;	Chosen strategy is simple_byte
  2775     024E  083C               	movf	??_main+1,w
  2776     024F  3A00               	xorlw	0	; case 0
  2777     0250  1903               	skipnz
  2778     0251  2A53               	goto	l4501
  2779     0252  2B20               	goto	l4401
  2780     0253                     l4501:
  2781                           
  2782                           ; Switch size 1, requested type "simple"
  2783                           ; Number of cases is 2, Range of values is 1 to 3
  2784                           ; switch strategies available:
  2785                           ; Name         Instructions Cycles
  2786                           ; simple_byte            7     4 (average)
  2787                           ; direct_byte           20    11 (fixed)
  2788                           ; jumptable            263     9 (fixed)
  2789                           ;	Chosen strategy is simple_byte
  2790     0253  083B               	movf	??_main,w
  2791     0254  3A01               	xorlw	1	; case 1
  2792     0255  1903               	skipnz
  2793     0256  2A35               	goto	l4341
  2794     0257  3A02               	xorlw	2	; case 3
  2795     0258  1903               	skipnz
  2796     0259  2A1F               	goto	l89
  2797     025A  2B20               	goto	l4401
  2798     025B                     l4349:
  2799                           
  2800                           ;main.c: 133:                 break;
  2801     025B  01F3               	clrf	clcd_write@mode
  2802     025C  300C               	movlw	12
  2803     025D  160A  118A  26EF  120A  118A  	fcall	_clcd_write
  2804     0262                     l4351:
  2805                           
  2806                           ;main.c: 134:             case 0x10:
  2807     0262  30A5               	movlw	165
  2808     0263  1283               	bcf	3,5	;RP0=0, select bank0
  2809     0264  1303               	bcf	3,6	;RP1=0, select bank0
  2810     0265  00BB               	movwf	??_main
  2811     0266                     u4237:
  2812     0266  0BBB               	decfsz	??_main,f
  2813     0267  2A66               	goto	u4237
  2814     0268  2A69               	nop2
  2815     0269                     l4353:
  2816                           
  2817                           ;main.c: 135:                 if(clear_log(reset_flag)==0x11)
  2818     0269  1683               	bsf	3,5	;RP0=1, select bank1
  2819     026A  1303               	bcf	3,6	;RP1=0, select bank1
  2820     026B  086A               	movf	main@key^(0+128),w
  2821     026C  1283               	bcf	3,5	;RP0=0, select bank0
  2822     026D  1303               	bcf	3,6	;RP1=0, select bank0
  2823     026E  00AA               	movwf	login_menu@key
  2824     026F  1683               	bsf	3,5	;RP0=1, select bank1
  2825     0270  1303               	bcf	3,6	;RP1=0, select bank1
  2826     0271  0869               	movf	main@reset_flag^(0+128),w
  2827     0272  120A  118A  273F  120A  118A  	fcall	_login_menu
  2828     0277  1683               	bsf	3,5	;RP0=1, select bank1
  2829     0278  1303               	bcf	3,6	;RP1=0, select bank1
  2830     0279  00E1               	movwf	main@menu_pos^(0+128)
  2831                           
  2832                           ;main.c: 136:                 {
  2833     027A  2B20               	goto	l4401
  2834     027B                     l4355:
  2835                           
  2836                           ;main.c: 138:                     control_flag=0x04;
  2837     027B  1683               	bsf	3,5	;RP0=1, select bank1
  2838     027C  1303               	bcf	3,6	;RP1=0, select bank1
  2839     027D  0869               	movf	main@reset_flag^(0+128),w
  2840     027E  1283               	bcf	3,5	;RP0=0, select bank0
  2841     027F  1303               	bcf	3,6	;RP1=0, select bank0
  2842     0280  00AA               	movwf	view_log@reset_flag
  2843     0281  1683               	bsf	3,5	;RP0=1, select bank1
  2844     0282  1303               	bcf	3,6	;RP1=0, select bank1
  2845     0283  086A               	movf	main@key^(0+128),w
  2846     0284  120A  158A  26C9  120A  118A  	fcall	_view_log
  2847     0289  3A03               	xorlw	3
  2848     028A  1D03               	skipz
  2849     028B  2A8D               	goto	u4181
  2850     028C  2A8E               	goto	u4180
  2851     028D                     u4181:
  2852     028D  2B20               	goto	l4401
  2853     028E                     u4180:
  2854     028E                     l4357:
  2855                           
  2856                           ;main.c: 139:                     reset_flag=0x05;;main.c: 140:                     cont
      +                          inue;
  2857     028E  160A  118A  2635  120A  118A  	fcall	_clear_screen
  2858     0293                     l4359:
  2859                           
  2860                           ;main.c: 141:                 }
  2861     0293  3004               	movlw	4
  2862     0294  1683               	bsf	3,5	;RP0=1, select bank1
  2863     0295  1303               	bcf	3,6	;RP1=0, select bank1
  2864     0296  00E7               	movwf	main@control_flag^(0+128)
  2865     0297                     l4361:
  2866                           
  2867                           ;main.c: 142:                 break;
  2868     0297  3005               	movlw	5
  2869     0298  00E9               	movwf	main@reset_flag^(0+128)
  2870     0299                     l4363:
  2871                           
  2872                           ;main.c: 143:             case 0x20:
  2873     0299  1283               	bcf	3,5	;RP0=0, select bank0
  2874     029A  1303               	bcf	3,6	;RP1=0, select bank0
  2875     029B  1112               	bcf	18,2	;volatile
  2876                           
  2877                           ;main.c: 144:                 break;
  2878     029C  2889               	goto	l4239
  2879     029D                     l4365:
  2880                           
  2881                           ;main.c: 148:                     clear_screen();
  2882     029D  1683               	bsf	3,5	;RP0=1, select bank1
  2883     029E  1303               	bcf	3,6	;RP1=0, select bank1
  2884     029F  0869               	movf	main@reset_flag^(0+128),w
  2885     02A0  120A  158A  2109  120A  118A  	fcall	_clear_log
  2886     02A5  3A11               	xorlw	17
  2887     02A6  1D03               	skipz
  2888     02A7  2AA9               	goto	u4191
  2889     02A8  2AAA               	goto	u4190
  2890     02A9                     u4191:
  2891     02A9  2B20               	goto	l4401
  2892     02AA                     u4190:
  2893     02AA                     l4367:
  2894                           
  2895                           ;main.c: 149:                     control_flag=0x04;;main.c: 150:                     re
      +                          set_flag=0x05;
  2896     02AA  160A  118A  2635  120A  118A  	fcall	_clear_screen
  2897     02AF                     l4369:
  2898                           
  2899                           ;main.c: 151:                     TMR2ON=0;
  2900     02AF  3004               	movlw	4
  2901     02B0  1683               	bsf	3,5	;RP0=1, select bank1
  2902     02B1  1303               	bcf	3,6	;RP1=0, select bank1
  2903     02B2  00E7               	movwf	main@control_flag^(0+128)
  2904     02B3                     l4371:
  2905                           
  2906                           ;main.c: 152:                     continue;
  2907     02B3  3005               	movlw	5
  2908     02B4  00E9               	movwf	main@reset_flag^(0+128)
  2909                           
  2910                           ;main.c: 153:                 }
  2911     02B5  2889               	goto	l4239
  2912     02B6                     l4373:
  2913                           
  2914                           ;main.c: 159:                         clear_screen();
  2915     02B6  1683               	bsf	3,5	;RP0=1, select bank1
  2916     02B7  1303               	bcf	3,6	;RP1=0, select bank1
  2917     02B8  086A               	movf	main@key^(0+128),w
  2918     02B9  1283               	bcf	3,5	;RP0=0, select bank0
  2919     02BA  1303               	bcf	3,6	;RP1=0, select bank0
  2920     02BB  00AA               	movwf	set_time@key
  2921     02BC  1683               	bsf	3,5	;RP0=1, select bank1
  2922     02BD  1303               	bcf	3,6	;RP1=0, select bank1
  2923     02BE  0869               	movf	main@reset_flag^(0+128),w
  2924     02BF  120A  158A  25AD  120A  118A  	fcall	_set_time
  2925     02C4  3A03               	xorlw	3
  2926     02C5  1D03               	skipz
  2927     02C6  2AC8               	goto	u4201
  2928     02C7  2AC9               	goto	u4200
  2929     02C8                     u4201:
  2930     02C8  2B20               	goto	l4401
  2931     02C9                     u4200:
  2932     02C9  2A8E               	goto	l4357
  2933     02CA                     l4383:
  2934                           
  2935                           ;main.c: 172:     return;
  2936     02CA  160A  118A  2635  120A  118A  	fcall	_clear_screen
  2937                           
  2938                           ;main.c: 173: }
  2939     02CF  01F3               	clrf	clcd_write@mode
  2940     02D0  300C               	movlw	12
  2941     02D1  160A  118A  26EF  120A  118A  	fcall	_clcd_write
  2942     02D6                     l4385:
  2943     02D6  30A5               	movlw	165
  2944     02D7  1283               	bcf	3,5	;RP0=0, select bank0
  2945     02D8  1303               	bcf	3,6	;RP1=0, select bank0
  2946     02D9  00BB               	movwf	??_main
  2947     02DA                     u4247:
  2948     02DA  0BBB               	decfsz	??_main,f
  2949     02DB  2ADA               	goto	u4247
  2950     02DC  2ADD               	nop2
  2951     02DD  2AAF               	goto	l4369
  2952     02DE                     l4395:
  2953     02DE  1683               	bsf	3,5	;RP0=1, select bank1
  2954     02DF  1303               	bcf	3,6	;RP1=0, select bank1
  2955     02E0  0869               	movf	main@reset_flag^(0+128),w
  2956     02E1  1283               	bcf	3,5	;RP0=0, select bank0
  2957     02E2  1303               	bcf	3,6	;RP1=0, select bank0
  2958     02E3  00AA               	movwf	change_password@reset_flag
  2959     02E4  1683               	bsf	3,5	;RP0=1, select bank1
  2960     02E5  1303               	bcf	3,6	;RP1=0, select bank1
  2961     02E6  086A               	movf	main@key^(0+128),w
  2962     02E7  120A  118A  24B9  120A  118A  	fcall	_change_password
  2963     02EC  1283               	bcf	3,5	;RP0=0, select bank0
  2964     02ED  1303               	bcf	3,6	;RP1=0, select bank0
  2965     02EE  00BB               	movwf	??_main
  2966     02EF  01BC               	clrf	??_main+1
  2967                           
  2968                           ; Switch on 2 bytes has been partitioned into a top level switch of size 1, and 1 sub-sw
      +                          itches
  2969                           ; Switch size 1, requested type "simple"
  2970                           ; Number of cases is 1, Range of values is 0 to 0
  2971                           ; switch strategies available:
  2972                           ; Name         Instructions Cycles
  2973                           ; simple_byte            4     3 (average)
  2974                           ; direct_byte           11     8 (fixed)
  2975                           ; jumptable            260     6 (fixed)
  2976                           ;	Chosen strategy is simple_byte
  2977     02F0  083C               	movf	??_main+1,w
  2978     02F1  3A00               	xorlw	0	; case 0
  2979     02F2  1903               	skipnz
  2980     02F3  2AF5               	goto	l4503
  2981     02F4  2B20               	goto	l4401
  2982     02F5                     l4503:
  2983                           
  2984                           ; Switch size 1, requested type "simple"
  2985                           ; Number of cases is 1, Range of values is 17 to 17
  2986                           ; switch strategies available:
  2987                           ; Name         Instructions Cycles
  2988                           ; simple_byte            4     3 (average)
  2989                           ; direct_byte           14    11 (fixed)
  2990                           ; jumptable            263     9 (fixed)
  2991                           ;	Chosen strategy is simple_byte
  2992     02F5  083B               	movf	??_main,w
  2993     02F6  3A11               	xorlw	17	; case 17
  2994     02F7  1903               	skipnz
  2995     02F8  2ACA               	goto	l4383
  2996     02F9  2B20               	goto	l4401
  2997     02FA                     l4399:
  2998     02FA  1683               	bsf	3,5	;RP0=1, select bank1
  2999     02FB  1303               	bcf	3,6	;RP1=0, select bank1
  3000     02FC  0867               	movf	main@control_flag^(0+128),w
  3001     02FD  1283               	bcf	3,5	;RP0=0, select bank0
  3002     02FE  1303               	bcf	3,6	;RP1=0, select bank0
  3003     02FF  00BB               	movwf	??_main
  3004     0300  01BC               	clrf	??_main+1
  3005                           
  3006                           ; Switch on 2 bytes has been partitioned into a top level switch of size 1, and 1 sub-sw
      +                          itches
  3007                           ; Switch size 1, requested type "simple"
  3008                           ; Number of cases is 1, Range of values is 0 to 0
  3009                           ; switch strategies available:
  3010                           ; Name         Instructions Cycles
  3011                           ; simple_byte            4     3 (average)
  3012                           ; direct_byte           11     8 (fixed)
  3013                           ; jumptable            260     6 (fixed)
  3014                           ;	Chosen strategy is simple_byte
  3015     0301  083C               	movf	??_main+1,w
  3016     0302  3A00               	xorlw	0	; case 0
  3017     0303  1903               	skipnz
  3018     0304  2B06               	goto	l4505
  3019     0305  2B20               	goto	l4401
  3020     0306                     l4505:
  3021                           
  3022                           ; Switch size 1, requested type "simple"
  3023                           ; Number of cases is 8, Range of values is 1 to 128
  3024                           ; switch strategies available:
  3025                           ; Name         Instructions Cycles
  3026                           ; simple_byte           25    13 (average)
  3027                           ; jumptable            263     9 (fixed)
  3028                           ;	Chosen strategy is simple_byte
  3029     0306  083B               	movf	??_main,w
  3030     0307  3A01               	xorlw	1	; case 1
  3031     0308  1903               	skipnz
  3032     0309  2A0C               	goto	l4333
  3033     030A  3A03               	xorlw	3	; case 2
  3034     030B  1903               	skipnz
  3035     030C  2A3C               	goto	l4347
  3036     030D  3A06               	xorlw	6	; case 4
  3037     030E  1903               	skipnz
  3038     030F  2A5B               	goto	l4349
  3039     0310  3A0C               	xorlw	12	; case 8
  3040     0311  1903               	skipnz
  3041     0312  2A7B               	goto	l4355
  3042     0313  3A18               	xorlw	24	; case 16
  3043     0314  1903               	skipnz
  3044     0315  2A9D               	goto	l4365
  3045     0316  3A30               	xorlw	48	; case 32
  3046     0317  1903               	skipnz
  3047     0318  2B20               	goto	l4401
  3048     0319  3A60               	xorlw	96	; case 64
  3049     031A  1903               	skipnz
  3050     031B  2AB6               	goto	l4373
  3051     031C  3AC0               	xorlw	192	; case 128
  3052     031D  1903               	skipnz
  3053     031E  2ADE               	goto	l4395
  3054     031F  2B20               	goto	l4401
  3055     0320                     l4401:
  3056     0320  1683               	bsf	3,5	;RP0=1, select bank1
  3057     0321  1303               	bcf	3,6	;RP1=0, select bank1
  3058     0322  01E9               	clrf	main@reset_flag^(0+128)
  3059     0323  2889               	goto	l4239
  3060     0324  120A  118A  280E   	ljmp	start
  3061     0327                     __end_of_main:
  3062                           
  3063                           	psect	text1
  3064     0EC9                     __ptext1:	
  3065 ;; *************** function _view_log *****************
  3066 ;; Defined at:
  3067 ;;		line 217 in file "car_black_box_def.c"
  3068 ;; Parameters:    Size  Location     Type
  3069 ;;  key             1    wreg     unsigned char 
  3070 ;;  reset_flag      1   10[BANK0 ] unsigned char 
  3071 ;; Auto vars:     Size  Location     Type
  3072 ;;  key             1   24[BANK0 ] unsigned char 
  3073 ;;  i               2   25[BANK0 ] int 
  3074 ;;  nlog           10   13[BANK0 ] unsigned char [10]
  3075 ;;  add             1   23[BANK0 ] unsigned char 
  3076 ;; Return value:  Size  Location     Type
  3077 ;;                  1    wreg      unsigned char 
  3078 ;; Registers used:
  3079 ;;		wreg, fsr0l, fsr0h, status,2, status,0, btemp+1, pclath, cstack
  3080 ;; Tracked objects:
  3081 ;;		On entry : 0/0
  3082 ;;		On exit  : 0/0
  3083 ;;		Unchanged: 0/0
  3084 ;; Data sizes:     COMMON   BANK0   BANK1   BANK3   BANK2
  3085 ;;      Params:         0       1       0       0       0
  3086 ;;      Locals:         0      14       0       0       0
  3087 ;;      Temps:          0       2       0       0       0
  3088 ;;      Totals:         0      17       0       0       0
  3089 ;;Total ram usage:       17 bytes
  3090 ;; Hardware stack levels used: 1
  3091 ;; Hardware stack levels required when called: 5
  3092 ;; This function calls:
  3093 ;;		___awmod
  3094 ;;		___bmul
  3095 ;;		_clcd_print
  3096 ;;		_clcd_putch
  3097 ;;		_ext_eeprom_24C02_read
  3098 ;; This function is called by:
  3099 ;;		_main
  3100 ;; This function uses a non-reentrant model
  3101 ;;
  3102                           
  3103     0EC9                     _view_log:	
  3104                           ;psect for function _view_log
  3105                           
  3106                           
  3107                           ;incstack = 0
  3108                           ; Regs used in _view_log: [wreg-fsr0h+status,2+status,0+btemp+1+pclath+cstack]
  3109                           ;view_log@key stored from wreg
  3110     0EC9  1283               	bcf	3,5	;RP0=0, select bank0
  3111     0ECA  1303               	bcf	3,6	;RP1=0, select bank0
  3112     0ECB  00B8               	movwf	view_log@key
  3113     0ECC                     l3965:
  3114                           
  3115                           ;car_black_box_def.c: 217: unsigned char view_log(unsigned char key,unsigned char reset_
      +                          flag);car_black_box_def.c: 218: {;car_black_box_def.c: 219:     char nlog[10];;car_black
      +                          _box_def.c: 220:     unsigned char add;;car_black_box_def.c: 221:     static unsigned ch
      +                          ar npos;;car_black_box_def.c: 222:     TMR2ON = 1;
  3116     0ECC  1512               	bsf	18,2	;volatile
  3117     0ECD                     l3967:
  3118                           
  3119                           ;car_black_box_def.c: 224:     if( reset_flag == 0x08)
  3120     0ECD  3008               	movlw	8
  3121     0ECE  062A               	xorwf	view_log@reset_flag,w
  3122     0ECF  1D03               	btfss	3,2
  3123     0ED0  2ED2               	goto	u3591
  3124     0ED1  2ED3               	goto	u3590
  3125     0ED2                     u3591:
  3126     0ED2  2EDB               	goto	l3973
  3127     0ED3                     u3590:
  3128     0ED3                     l3969:
  3129                           
  3130                           ;car_black_box_def.c: 225:     {;car_black_box_def.c: 226:         key = 0x3F;
  3131     0ED3  303F               	movlw	63
  3132     0ED4  00B8               	movwf	view_log@key
  3133                           
  3134                           ;car_black_box_def.c: 227:         return_time=10;
  3135     0ED5  300A               	movlw	10
  3136     0ED6  00CC               	movwf	_return_time
  3137     0ED7  3000               	movlw	0
  3138     0ED8  00CD               	movwf	_return_time+1
  3139     0ED9                     l3971:
  3140                           
  3141                           ;car_black_box_def.c: 228:         sec=0;
  3142     0ED9  01C6               	clrf	_sec
  3143     0EDA  01C7               	clrf	_sec+1
  3144     0EDB                     l3973:
  3145                           
  3146                           ;car_black_box_def.c: 230:     if(access == -1)
  3147     0EDB  0A48               	incf	_access,w
  3148     0EDC  1D03               	skipz
  3149     0EDD  2EE2               	goto	u3601
  3150     0EDE  0A49               	incf	_access+1,w
  3151     0EDF  1D03               	btfss	3,2
  3152     0EE0  2EE2               	goto	u3601
  3153     0EE1  2EE3               	goto	u3600
  3154     0EE2                     u3601:
  3155     0EE2  2EEF               	goto	l3977
  3156     0EE3                     u3600:
  3157     0EE3                     l3975:
  3158                           
  3159                           ;car_black_box_def.c: 231:     {;car_black_box_def.c: 232:         clcd_print(" No logs"
      +                          ,(0xC0 + 0));
  3160     0EE3  301C               	movlw	low (STR_23| (0+32768))
  3161     0EE4  00A1               	movwf	clcd_print@str
  3162     0EE5  3087               	movlw	high (STR_23| (0+32768))
  3163     0EE6  00A2               	movwf	clcd_print@str+1
  3164     0EE7  30C0               	movlw	192
  3165     0EE8  00A3               	movwf	clcd_print@addr
  3166     0EE9  120A  158A  203C  120A  158A  	fcall	_clcd_print
  3167                           
  3168                           ;car_black_box_def.c: 233:     }
  3169     0EEE  2FF0               	goto	l4013
  3170     0EEF                     l3977:
  3171                           
  3172                           ;car_black_box_def.c: 235:     {;car_black_box_def.c: 236:         if (reset_flag == 0x0
      +                          8)
  3173     0EEF  3008               	movlw	8
  3174     0EF0  062A               	xorwf	view_log@reset_flag,w
  3175     0EF1  1D03               	btfss	3,2
  3176     0EF2  2EF4               	goto	u3611
  3177     0EF3  2EF5               	goto	u3610
  3178     0EF4                     u3611:
  3179     0EF4  2EF6               	goto	l3981
  3180     0EF5                     u3610:
  3181     0EF5                     l3979:
  3182                           
  3183                           ;car_black_box_def.c: 237:         {;car_black_box_def.c: 238:             npos=0;
  3184     0EF5  01CE               	clrf	view_log@npos
  3185     0EF6                     l3981:
  3186                           
  3187                           ;car_black_box_def.c: 240:         if(key == 0x37 && npos < (access-1))
  3188     0EF6  3037               	movlw	55
  3189     0EF7  0638               	xorwf	view_log@key,w
  3190     0EF8  1D03               	btfss	3,2
  3191     0EF9  2EFB               	goto	u3621
  3192     0EFA  2EFC               	goto	u3620
  3193     0EFB                     u3621:
  3194     0EFB  2F1A               	goto	l3989
  3195     0EFC                     u3620:
  3196     0EFC                     l3983:
  3197     0EFC  0848               	movf	_access,w
  3198     0EFD  3EFF               	addlw	255
  3199     0EFE  00AB               	movwf	??_view_log
  3200     0EFF  0849               	movf	_access+1,w
  3201     0F00  1803               	skipnc
  3202     0F01  3E01               	addlw	1
  3203     0F02  3EFF               	addlw	255
  3204     0F03  00AC               	movwf	??_view_log+1
  3205     0F04  082C               	movf	??_view_log+1,w
  3206     0F05  3A80               	xorlw	128
  3207     0F06  3C80               	sublw	128
  3208     0F07  1D03               	skipz
  3209     0F08  2F0B               	goto	u3635
  3210     0F09  082B               	movf	??_view_log,w
  3211     0F0A  024E               	subwf	view_log@npos,w
  3212     0F0B                     u3635:
  3213     0F0B  1803               	skipnc
  3214     0F0C  2F0E               	goto	u3631
  3215     0F0D  2F0F               	goto	u3630
  3216     0F0E                     u3631:
  3217     0F0E  2F1A               	goto	l3989
  3218     0F0F                     u3630:
  3219     0F0F                     l3985:
  3220                           
  3221                           ;car_black_box_def.c: 241:         {;car_black_box_def.c: 242:             npos++;
  3222     0F0F  3001               	movlw	1
  3223     0F10  1283               	bcf	3,5	;RP0=0, select bank0
  3224     0F11  1303               	bcf	3,6	;RP1=0, select bank0
  3225     0F12  00AB               	movwf	??_view_log
  3226     0F13  082B               	movf	??_view_log,w
  3227     0F14  07CE               	addwf	view_log@npos,f
  3228     0F15                     l3987:
  3229                           
  3230                           ;car_black_box_def.c: 243:             return_time=10;
  3231     0F15  300A               	movlw	10
  3232     0F16  00CC               	movwf	_return_time
  3233     0F17  3000               	movlw	0
  3234     0F18  00CD               	movwf	_return_time+1
  3235                           
  3236                           ;car_black_box_def.c: 244:         }
  3237     0F19  2F2A               	goto	l3997
  3238     0F1A                     l3989:
  3239     0F1A  302F               	movlw	47
  3240     0F1B  1283               	bcf	3,5	;RP0=0, select bank0
  3241     0F1C  1303               	bcf	3,6	;RP1=0, select bank0
  3242     0F1D  0638               	xorwf	view_log@key,w
  3243     0F1E  1D03               	btfss	3,2
  3244     0F1F  2F21               	goto	u3641
  3245     0F20  2F22               	goto	u3640
  3246     0F21                     u3641:
  3247     0F21  2F2A               	goto	l3997
  3248     0F22                     u3640:
  3249     0F22                     l3991:
  3250     0F22  084E               	movf	view_log@npos,w
  3251     0F23  1903               	btfsc	3,2
  3252     0F24  2F26               	goto	u3651
  3253     0F25  2F27               	goto	u3650
  3254     0F26                     u3651:
  3255     0F26  2F2A               	goto	l3997
  3256     0F27                     u3650:
  3257     0F27                     l3993:
  3258                           
  3259                           ;car_black_box_def.c: 246:         {;car_black_box_def.c: 247:             npos--;
  3260     0F27  3001               	movlw	1
  3261     0F28  02CE               	subwf	view_log@npos,f
  3262     0F29  2F15               	goto	l3987
  3263     0F2A                     l3997:
  3264                           
  3265                           ;car_black_box_def.c: 250:         for(int i=0;i<10;i++)
  3266     0F2A  01B9               	clrf	view_log@i
  3267     0F2B  01BA               	clrf	view_log@i+1
  3268     0F2C                     l4003:
  3269                           
  3270                           ;car_black_box_def.c: 251:         {;car_black_box_def.c: 252:             add=npos*10+5
      +                          ;
  3271     0F2C  300A               	movlw	10
  3272     0F2D  00F3               	movwf	___bmul@multiplicand
  3273     0F2E  1283               	bcf	3,5	;RP0=0, select bank0
  3274     0F2F  1303               	bcf	3,6	;RP1=0, select bank0
  3275     0F30  084E               	movf	view_log@npos,w
  3276     0F31  160A  118A  2683  120A  158A  	fcall	___bmul
  3277     0F36  3E05               	addlw	5
  3278     0F37  1283               	bcf	3,5	;RP0=0, select bank0
  3279     0F38  1303               	bcf	3,6	;RP1=0, select bank0
  3280     0F39  00B7               	movwf	view_log@add
  3281     0F3A                     l4005:
  3282                           
  3283                           ;car_black_box_def.c: 253:             nlog[i]=ext_eeprom_24C02_read(add + i);
  3284     0F3A  0839               	movf	view_log@i,w
  3285     0F3B  3E2D               	addlw	(low (view_log@nlog| 0))& (0+255)
  3286     0F3C  0084               	movwf	4
  3287     0F3D  0839               	movf	view_log@i,w
  3288     0F3E  0737               	addwf	view_log@add,w
  3289     0F3F  120A  158A  20A2  120A  158A  	fcall	_ext_eeprom_24C02_read
  3290     0F44  1383               	bcf	3,7	;select IRP bank0
  3291     0F45  0080               	movwf	0
  3292     0F46                     l4007:
  3293                           
  3294                           ;car_black_box_def.c: 254:         }
  3295     0F46  3001               	movlw	1
  3296     0F47  1283               	bcf	3,5	;RP0=0, select bank0
  3297     0F48  1303               	bcf	3,6	;RP1=0, select bank0
  3298     0F49  07B9               	addwf	view_log@i,f
  3299     0F4A  1803               	skipnc
  3300     0F4B  0ABA               	incf	view_log@i+1,f
  3301     0F4C  3000               	movlw	0
  3302     0F4D  07BA               	addwf	view_log@i+1,f
  3303     0F4E                     l4009:
  3304     0F4E  083A               	movf	view_log@i+1,w
  3305     0F4F  3A80               	xorlw	128
  3306     0F50  00FF               	movwf	btemp+1
  3307     0F51  3080               	movlw	128
  3308     0F52  027F               	subwf	btemp+1,w
  3309     0F53  1D03               	skipz
  3310     0F54  2F57               	goto	u3665
  3311     0F55  300A               	movlw	10
  3312     0F56  0239               	subwf	view_log@i,w
  3313     0F57                     u3665:
  3314     0F57  1C03               	skipc
  3315     0F58  2F5A               	goto	u3661
  3316     0F59  2F5B               	goto	u3660
  3317     0F5A                     u3661:
  3318     0F5A  2F2C               	goto	l4003
  3319     0F5B                     u3660:
  3320     0F5B                     l4011:
  3321                           
  3322                           ;car_black_box_def.c: 256:         clcd_putch(npos%10 + '0',(0xC0 + 0));
  3323     0F5B  30C0               	movlw	192
  3324     0F5C  1283               	bcf	3,5	;RP0=0, select bank0
  3325     0F5D  1303               	bcf	3,6	;RP1=0, select bank0
  3326     0F5E  00A8               	movwf	clcd_putch@addr
  3327     0F5F  300A               	movlw	10
  3328     0F60  00A0               	movwf	___awmod@divisor
  3329     0F61  3000               	movlw	0
  3330     0F62  00A1               	movwf	___awmod@divisor+1
  3331     0F63  084E               	movf	view_log@npos,w
  3332     0F64  00AB               	movwf	??_view_log
  3333     0F65  01AC               	clrf	??_view_log+1
  3334     0F66  082B               	movf	??_view_log,w
  3335     0F67  00A2               	movwf	___awmod@dividend
  3336     0F68  082C               	movf	??_view_log+1,w
  3337     0F69  00A3               	movwf	___awmod@dividend+1
  3338     0F6A  120A  158A  22E3  120A  158A  	fcall	___awmod
  3339     0F6F  1283               	bcf	3,5	;RP0=0, select bank0
  3340     0F70  1303               	bcf	3,6	;RP1=0, select bank0
  3341     0F71  0820               	movf	?___awmod,w
  3342     0F72  3E30               	addlw	48
  3343     0F73  160A  118A  266E  120A  158A  	fcall	_clcd_putch
  3344                           
  3345                           ;car_black_box_def.c: 258:         clcd_putch(nlog[0],(0xC0 + 2));
  3346     0F78  30C2               	movlw	194
  3347     0F79  1283               	bcf	3,5	;RP0=0, select bank0
  3348     0F7A  1303               	bcf	3,6	;RP1=0, select bank0
  3349     0F7B  00A8               	movwf	clcd_putch@addr
  3350     0F7C  082D               	movf	view_log@nlog,w
  3351     0F7D  160A  118A  266E  120A  158A  	fcall	_clcd_putch
  3352                           
  3353                           ;car_black_box_def.c: 259:         clcd_putch(nlog[1],(0xC0 + 3));
  3354     0F82  30C3               	movlw	195
  3355     0F83  1283               	bcf	3,5	;RP0=0, select bank0
  3356     0F84  1303               	bcf	3,6	;RP1=0, select bank0
  3357     0F85  00A8               	movwf	clcd_putch@addr
  3358     0F86  082E               	movf	view_log@nlog+1,w
  3359     0F87  160A  118A  266E  120A  158A  	fcall	_clcd_putch
  3360                           
  3361                           ;car_black_box_def.c: 260:         clcd_putch(':',(0xC0 + 4));
  3362     0F8C  30C4               	movlw	196
  3363     0F8D  1283               	bcf	3,5	;RP0=0, select bank0
  3364     0F8E  1303               	bcf	3,6	;RP1=0, select bank0
  3365     0F8F  00A8               	movwf	clcd_putch@addr
  3366     0F90  303A               	movlw	58
  3367     0F91  160A  118A  266E  120A  158A  	fcall	_clcd_putch
  3368                           
  3369                           ;car_black_box_def.c: 262:         clcd_putch(nlog[2],(0xC0 + 5));
  3370     0F96  30C5               	movlw	197
  3371     0F97  1283               	bcf	3,5	;RP0=0, select bank0
  3372     0F98  1303               	bcf	3,6	;RP1=0, select bank0
  3373     0F99  00A8               	movwf	clcd_putch@addr
  3374     0F9A  082F               	movf	view_log@nlog+2,w
  3375     0F9B  160A  118A  266E  120A  158A  	fcall	_clcd_putch
  3376                           
  3377                           ;car_black_box_def.c: 263:         clcd_putch(nlog[3],(0xC0 + 6));
  3378     0FA0  30C6               	movlw	198
  3379     0FA1  1283               	bcf	3,5	;RP0=0, select bank0
  3380     0FA2  1303               	bcf	3,6	;RP1=0, select bank0
  3381     0FA3  00A8               	movwf	clcd_putch@addr
  3382     0FA4  0830               	movf	view_log@nlog+3,w
  3383     0FA5  160A  118A  266E  120A  158A  	fcall	_clcd_putch
  3384                           
  3385                           ;car_black_box_def.c: 264:         clcd_putch(':',(0xC0 + 7));
  3386     0FAA  30C7               	movlw	199
  3387     0FAB  1283               	bcf	3,5	;RP0=0, select bank0
  3388     0FAC  1303               	bcf	3,6	;RP1=0, select bank0
  3389     0FAD  00A8               	movwf	clcd_putch@addr
  3390     0FAE  303A               	movlw	58
  3391     0FAF  160A  118A  266E  120A  158A  	fcall	_clcd_putch
  3392                           
  3393                           ;car_black_box_def.c: 266:         clcd_putch(nlog[4],(0xC0 + 8));
  3394     0FB4  30C8               	movlw	200
  3395     0FB5  1283               	bcf	3,5	;RP0=0, select bank0
  3396     0FB6  1303               	bcf	3,6	;RP1=0, select bank0
  3397     0FB7  00A8               	movwf	clcd_putch@addr
  3398     0FB8  0831               	movf	view_log@nlog+4,w
  3399     0FB9  160A  118A  266E  120A  158A  	fcall	_clcd_putch
  3400                           
  3401                           ;car_black_box_def.c: 267:         clcd_putch(nlog[5],(0xC0 + 9));
  3402     0FBE  30C9               	movlw	201
  3403     0FBF  1283               	bcf	3,5	;RP0=0, select bank0
  3404     0FC0  1303               	bcf	3,6	;RP1=0, select bank0
  3405     0FC1  00A8               	movwf	clcd_putch@addr
  3406     0FC2  0832               	movf	view_log@nlog+5,w
  3407     0FC3  160A  118A  266E  120A  158A  	fcall	_clcd_putch
  3408                           
  3409                           ;car_black_box_def.c: 269:         clcd_putch(nlog[6],(0xC0 + 11));
  3410     0FC8  30CB               	movlw	203
  3411     0FC9  1283               	bcf	3,5	;RP0=0, select bank0
  3412     0FCA  1303               	bcf	3,6	;RP1=0, select bank0
  3413     0FCB  00A8               	movwf	clcd_putch@addr
  3414     0FCC  0833               	movf	view_log@nlog+6,w
  3415     0FCD  160A  118A  266E  120A  158A  	fcall	_clcd_putch
  3416                           
  3417                           ;car_black_box_def.c: 270:         clcd_putch(nlog[7],(0xC0 + 12));
  3418     0FD2  30CC               	movlw	204
  3419     0FD3  1283               	bcf	3,5	;RP0=0, select bank0
  3420     0FD4  1303               	bcf	3,6	;RP1=0, select bank0
  3421     0FD5  00A8               	movwf	clcd_putch@addr
  3422     0FD6  0834               	movf	view_log@nlog+7,w
  3423     0FD7  160A  118A  266E  120A  158A  	fcall	_clcd_putch
  3424                           
  3425                           ;car_black_box_def.c: 272:         clcd_putch(nlog[8],(0xC0 + 14));
  3426     0FDC  30CE               	movlw	206
  3427     0FDD  1283               	bcf	3,5	;RP0=0, select bank0
  3428     0FDE  1303               	bcf	3,6	;RP1=0, select bank0
  3429     0FDF  00A8               	movwf	clcd_putch@addr
  3430     0FE0  0835               	movf	view_log@nlog+8,w
  3431     0FE1  160A  118A  266E  120A  158A  	fcall	_clcd_putch
  3432                           
  3433                           ;car_black_box_def.c: 273:         clcd_putch(nlog[9],(0xC0 + 15));
  3434     0FE6  30CF               	movlw	207
  3435     0FE7  1283               	bcf	3,5	;RP0=0, select bank0
  3436     0FE8  1303               	bcf	3,6	;RP1=0, select bank0
  3437     0FE9  00A8               	movwf	clcd_putch@addr
  3438     0FEA  0836               	movf	view_log@nlog+9,w
  3439     0FEB  160A  118A  266E  120A  158A  	fcall	_clcd_putch
  3440     0FF0                     l4013:
  3441                           
  3442                           ;car_black_box_def.c: 275:     if(key == 0x1F || return_time == 0)
  3443     0FF0  301F               	movlw	31
  3444     0FF1  1283               	bcf	3,5	;RP0=0, select bank0
  3445     0FF2  1303               	bcf	3,6	;RP1=0, select bank0
  3446     0FF3  0638               	xorwf	view_log@key,w
  3447     0FF4  1903               	btfsc	3,2
  3448     0FF5  2FF7               	goto	u3671
  3449     0FF6  2FF8               	goto	u3670
  3450     0FF7                     u3671:
  3451     0FF7  2FFE               	goto	l4017
  3452     0FF8                     u3670:
  3453     0FF8                     l4015:
  3454     0FF8  084C               	movf	_return_time,w
  3455     0FF9  044D               	iorwf	_return_time+1,w
  3456     0FFA  1D03               	btfss	3,2
  3457     0FFB  2FFD               	goto	u3681
  3458     0FFC  2FFE               	goto	u3680
  3459     0FFD                     u3681:
  3460     0FFD  2FFF               	goto	l369
  3461     0FFE                     u3680:
  3462     0FFE                     l4017:
  3463                           
  3464                           ;car_black_box_def.c: 276:     {;car_black_box_def.c: 277:         return 0x03;
  3465     0FFE  3003               	movlw	3
  3466     0FFF                     l369:
  3467     0FFF  0008               	return
  3468     1000                     __end_of_view_log:
  3469                           
  3470                           	psect	text2
  3471     1759                     __ptext2:	
  3472 ;; *************** function _strcpy *****************
  3473 ;; Defined at:
  3474 ;;		line 8 in file "C:\Program Files\Microchip\xc8\v2.40\pic\sources\c90\common\strcpy.c"
  3475 ;; Parameters:    Size  Location     Type
  3476 ;;  to              1    wreg     PTR unsigned char 
  3477 ;;		 -> main@event(3), 
  3478 ;;  from            2    3[COMMON] PTR const unsigned char 
  3479 ;;		 -> STR_8(3), STR_6(3), STR_5(3), STR_4(3), 
  3480 ;;		 -> STR_3(3), STR_2(3), STR_1(3), 
  3481 ;; Auto vars:     Size  Location     Type
  3482 ;;  to              1    1[BANK0 ] PTR unsigned char 
  3483 ;;		 -> main@event(3), 
  3484 ;;  cp              1    0[BANK0 ] PTR unsigned char 
  3485 ;;		 -> main@event(3), 
  3486 ;; Return value:  Size  Location     Type
  3487 ;;                  1    wreg      PTR unsigned char 
  3488 ;; Registers used:
  3489 ;;		wreg, fsr0l, fsr0h, status,2, status,0, btemp+1, pclath
  3490 ;; Tracked objects:
  3491 ;;		On entry : 0/0
  3492 ;;		On exit  : 0/0
  3493 ;;		Unchanged: 0/0
  3494 ;; Data sizes:     COMMON   BANK0   BANK1   BANK3   BANK2
  3495 ;;      Params:         2       0       0       0       0
  3496 ;;      Locals:         0       2       0       0       0
  3497 ;;      Temps:          1       0       0       0       0
  3498 ;;      Totals:         3       2       0       0       0
  3499 ;;Total ram usage:        5 bytes
  3500 ;; Hardware stack levels used: 2
  3501 ;; Hardware stack levels required when called: 1
  3502 ;; This function calls:
  3503 ;;		Nothing
  3504 ;; This function is called by:
  3505 ;;		_main
  3506 ;; This function uses a non-reentrant model
  3507 ;;
  3508                           
  3509     1759                     _strcpy:	
  3510                           ;psect for function _strcpy
  3511                           
  3512                           
  3513                           ;incstack = 0
  3514                           ; Regs used in _strcpy: [wreg-fsr0h+status,2+status,0+btemp+1+pclath]
  3515                           ;strcpy@to stored from wreg
  3516     1759  1283               	bcf	3,5	;RP0=0, select bank0
  3517     175A  1303               	bcf	3,6	;RP1=0, select bank0
  3518     175B  00A1               	movwf	strcpy@to
  3519     175C                     l3797:
  3520     175C  0821               	movf	strcpy@to,w
  3521     175D  00A0               	movwf	strcpy@cp
  3522     175E  2F69               	goto	l3803
  3523     175F                     l3799:
  3524     175F  3001               	movlw	1
  3525     1760  00F5               	movwf	??_strcpy
  3526     1761  0875               	movf	??_strcpy,w
  3527     1762  07A0               	addwf	strcpy@cp,f
  3528     1763                     l3801:
  3529     1763  3001               	movlw	1
  3530     1764  07F3               	addwf	strcpy@from,f
  3531     1765  1803               	skipnc
  3532     1766  0AF4               	incf	strcpy@from+1,f
  3533     1767  3000               	movlw	0
  3534     1768  07F4               	addwf	strcpy@from+1,f
  3535     1769                     l3803:
  3536     1769  0874               	movf	strcpy@from+1,w
  3537     176A  00FF               	movwf	btemp+1
  3538     176B  0873               	movf	strcpy@from,w
  3539     176C  0084               	movwf	4
  3540     176D  160A  118A  2000  160A  118A  	fcall	stringtab
  3541     1772  00F5               	movwf	??_strcpy
  3542     1773  0820               	movf	strcpy@cp,w
  3543     1774  0084               	movwf	4
  3544     1775  0875               	movf	??_strcpy,w
  3545     1776  1383               	bcf	3,7	;select IRP bank0
  3546     1777  0080               	movwf	0
  3547     1778  0800               	movf	0,w
  3548     1779  1D03               	btfss	3,2
  3549     177A  2F7C               	goto	u3401
  3550     177B  2F7D               	goto	u3400
  3551     177C                     u3401:
  3552     177C  2F5F               	goto	l3799
  3553     177D                     u3400:
  3554     177D                     l1054:
  3555     177D  0008               	return
  3556     177E                     __end_of_strcpy:
  3557                           
  3558                           	psect	text3
  3559     0DAD                     __ptext3:	
  3560 ;; *************** function _set_time *****************
  3561 ;; Defined at:
  3562 ;;		line 295 in file "car_black_box_def.c"
  3563 ;; Parameters:    Size  Location     Type
  3564 ;;  reset_flag      1    wreg     unsigned char 
  3565 ;;  key             1   10[BANK0 ] unsigned char 
  3566 ;; Auto vars:     Size  Location     Type
  3567 ;;  reset_flag      1   12[BANK0 ] unsigned char 
  3568 ;;  sec             2    0        int 
  3569 ;;  min             2    0        int 
  3570 ;;  hr              2    0        int 
  3571 ;; Return value:  Size  Location     Type
  3572 ;;                  1    wreg      unsigned char 
  3573 ;; Registers used:
  3574 ;;		wreg, status,2, status,0, btemp+1, pclath, cstack
  3575 ;; Tracked objects:
  3576 ;;		On entry : 0/0
  3577 ;;		On exit  : 0/0
  3578 ;;		Unchanged: 0/0
  3579 ;; Data sizes:     COMMON   BANK0   BANK1   BANK3   BANK2
  3580 ;;      Params:         0       1       0       0       0
  3581 ;;      Locals:         0       1       0       0       0
  3582 ;;      Temps:          0       1       0       0       0
  3583 ;;      Totals:         0       3       0       0       0
  3584 ;;Total ram usage:        3 bytes
  3585 ;; Hardware stack levels used: 1
  3586 ;; Hardware stack levels required when called: 3
  3587 ;; This function calls:
  3588 ;;		_clcd_putch
  3589 ;; This function is called by:
  3590 ;;		_main
  3591 ;; This function uses a non-reentrant model
  3592 ;;
  3593                           
  3594     0DAD                     _set_time:	
  3595                           ;psect for function _set_time
  3596                           
  3597                           
  3598                           ;incstack = 0
  3599                           ; Regs used in _set_time: [wreg+status,2+status,0+btemp+1+pclath+cstack]
  3600                           ;set_time@reset_flag stored from wreg
  3601     0DAD  1283               	bcf	3,5	;RP0=0, select bank0
  3602     0DAE  1303               	bcf	3,6	;RP1=0, select bank0
  3603     0DAF  00AC               	movwf	set_time@reset_flag
  3604     0DB0                     l4035:
  3605                           
  3606                           ;car_black_box_def.c: 295: unsigned char set_time(unsigned char reset_flag,unsigned char
      +                           key);car_black_box_def.c: 296: {;car_black_box_def.c: 297:     static int fp = 3;;car_b
      +                          lack_box_def.c: 298:     TMR2ON = 1;
  3607     0DB0  1512               	bsf	18,2	;volatile
  3608                           
  3609                           ;car_black_box_def.c: 299:     int hr,min,sec;;car_black_box_def.c: 300:     TMR2ON = 1;
  3610     0DB1  1512               	bsf	18,2	;volatile
  3611     0DB2                     l4037:
  3612                           
  3613                           ;car_black_box_def.c: 302:     if( reset_flag == 0x10)
  3614     0DB2  3010               	movlw	16
  3615     0DB3  062C               	xorwf	set_time@reset_flag,w
  3616     0DB4  1D03               	btfss	3,2
  3617     0DB5  2DB7               	goto	u3701
  3618     0DB6  2DB8               	goto	u3700
  3619     0DB7                     u3701:
  3620     0DB7  2DBA               	goto	l4041
  3621     0DB8                     u3700:
  3622     0DB8                     l4039:
  3623                           
  3624                           ;car_black_box_def.c: 303:     {;car_black_box_def.c: 304:         key = 0x3F;
  3625     0DB8  303F               	movlw	63
  3626     0DB9  00AA               	movwf	set_time@key
  3627     0DBA                     l4041:
  3628                           
  3629                           ;car_black_box_def.c: 307:     if(tick%2==0)
  3630     0DBA  184A               	btfsc	_tick,0
  3631     0DBB  2DBD               	goto	u3711
  3632     0DBC  2DBE               	goto	u3710
  3633     0DBD                     u3711:
  3634     0DBD  2E0D               	goto	l4045
  3635     0DBE                     u3710:
  3636     0DBE                     l4043:
  3637                           
  3638                           ;car_black_box_def.c: 308:     {;car_black_box_def.c: 309:         clcd_putch(time[0],(0
      +                          xC0 + 2));
  3639     0DBE  30C2               	movlw	194
  3640     0DBF  00A8               	movwf	clcd_putch@addr
  3641     0DC0  0852               	movf	_time,w
  3642     0DC1  160A  118A  266E  120A  158A  	fcall	_clcd_putch
  3643                           
  3644                           ;car_black_box_def.c: 310:         clcd_putch(time[1],(0xC0 + 3));
  3645     0DC6  30C3               	movlw	195
  3646     0DC7  1283               	bcf	3,5	;RP0=0, select bank0
  3647     0DC8  1303               	bcf	3,6	;RP1=0, select bank0
  3648     0DC9  00A8               	movwf	clcd_putch@addr
  3649     0DCA  0853               	movf	_time+1,w
  3650     0DCB  160A  118A  266E  120A  158A  	fcall	_clcd_putch
  3651                           
  3652                           ;car_black_box_def.c: 311:         clcd_putch(':',(0xC0 + 4));
  3653     0DD0  30C4               	movlw	196
  3654     0DD1  1283               	bcf	3,5	;RP0=0, select bank0
  3655     0DD2  1303               	bcf	3,6	;RP1=0, select bank0
  3656     0DD3  00A8               	movwf	clcd_putch@addr
  3657     0DD4  303A               	movlw	58
  3658     0DD5  160A  118A  266E  120A  158A  	fcall	_clcd_putch
  3659                           
  3660                           ;car_black_box_def.c: 312:         clcd_putch(time[2],(0xC0 + 5));
  3661     0DDA  30C5               	movlw	197
  3662     0DDB  1283               	bcf	3,5	;RP0=0, select bank0
  3663     0DDC  1303               	bcf	3,6	;RP1=0, select bank0
  3664     0DDD  00A8               	movwf	clcd_putch@addr
  3665     0DDE  0854               	movf	_time+2,w
  3666     0DDF  160A  118A  266E  120A  158A  	fcall	_clcd_putch
  3667                           
  3668                           ;car_black_box_def.c: 313:         clcd_putch(time[3],(0xC0 + 6));
  3669     0DE4  30C6               	movlw	198
  3670     0DE5  1283               	bcf	3,5	;RP0=0, select bank0
  3671     0DE6  1303               	bcf	3,6	;RP1=0, select bank0
  3672     0DE7  00A8               	movwf	clcd_putch@addr
  3673     0DE8  0855               	movf	_time+3,w
  3674     0DE9  160A  118A  266E  120A  158A  	fcall	_clcd_putch
  3675                           
  3676                           ;car_black_box_def.c: 314:         clcd_putch(':',(0xC0 + 7));
  3677     0DEE  30C7               	movlw	199
  3678     0DEF  1283               	bcf	3,5	;RP0=0, select bank0
  3679     0DF0  1303               	bcf	3,6	;RP1=0, select bank0
  3680     0DF1  00A8               	movwf	clcd_putch@addr
  3681     0DF2  303A               	movlw	58
  3682     0DF3  160A  118A  266E  120A  158A  	fcall	_clcd_putch
  3683                           
  3684                           ;car_black_box_def.c: 315:         clcd_putch(time[4],(0xC0 + 8));
  3685     0DF8  30C8               	movlw	200
  3686     0DF9  1283               	bcf	3,5	;RP0=0, select bank0
  3687     0DFA  1303               	bcf	3,6	;RP1=0, select bank0
  3688     0DFB  00A8               	movwf	clcd_putch@addr
  3689     0DFC  0856               	movf	_time+4,w
  3690     0DFD  160A  118A  266E  120A  158A  	fcall	_clcd_putch
  3691                           
  3692                           ;car_black_box_def.c: 316:         clcd_putch(time[5],(0xC0 + 9));
  3693     0E02  30C9               	movlw	201
  3694     0E03  1283               	bcf	3,5	;RP0=0, select bank0
  3695     0E04  1303               	bcf	3,6	;RP1=0, select bank0
  3696     0E05  00A8               	movwf	clcd_putch@addr
  3697     0E06  0857               	movf	_time+5,w
  3698     0E07  160A  118A  266E  120A  158A  	fcall	_clcd_putch
  3699                           
  3700                           ;car_black_box_def.c: 317:     }
  3701     0E0C  2E16               	goto	l4047
  3702     0E0D                     l4045:
  3703                           
  3704                           ;car_black_box_def.c: 319:     {;car_black_box_def.c: 320:         clcd_putch(0xFF,(0xC0
      +                           + fp));
  3705     0E0D  0859               	movf	set_time@fp,w
  3706     0E0E  3EC0               	addlw	192
  3707     0E0F  00A8               	movwf	clcd_putch@addr
  3708     0E10  30FF               	movlw	255
  3709     0E11  160A  118A  266E  120A  158A  	fcall	_clcd_putch
  3710     0E16                     l4047:
  3711                           
  3712                           ;car_black_box_def.c: 322:     if(key == 0x2F )
  3713     0E16  302F               	movlw	47
  3714     0E17  1283               	bcf	3,5	;RP0=0, select bank0
  3715     0E18  1303               	bcf	3,6	;RP1=0, select bank0
  3716     0E19  062A               	xorwf	set_time@key,w
  3717     0E1A  1D03               	btfss	3,2
  3718     0E1B  2E1D               	goto	u3721
  3719     0E1C  2E1E               	goto	u3720
  3720     0E1D                     u3721:
  3721     0E1D  2E3C               	goto	l4055
  3722     0E1E                     u3720:
  3723     0E1E                     l4049:
  3724                           
  3725                           ;car_black_box_def.c: 323:     {;car_black_box_def.c: 324:         if(fp < 9)
  3726     0E1E  085A               	movf	set_time@fp+1,w
  3727     0E1F  3A80               	xorlw	128
  3728     0E20  00FF               	movwf	btemp+1
  3729     0E21  3080               	movlw	128
  3730     0E22  027F               	subwf	btemp+1,w
  3731     0E23  1D03               	skipz
  3732     0E24  2E27               	goto	u3735
  3733     0E25  3009               	movlw	9
  3734     0E26  0259               	subwf	set_time@fp,w
  3735     0E27                     u3735:
  3736     0E27  1803               	skipnc
  3737     0E28  2E2A               	goto	u3731
  3738     0E29  2E2B               	goto	u3730
  3739     0E2A                     u3731:
  3740     0E2A  2E36               	goto	l4053
  3741     0E2B                     u3730:
  3742     0E2B                     l4051:
  3743                           
  3744                           ;car_black_box_def.c: 325:         {;car_black_box_def.c: 326:            fp = fp + 3 ;
  3745     0E2B  1283               	bcf	3,5	;RP0=0, select bank0
  3746     0E2C  1303               	bcf	3,6	;RP1=0, select bank0
  3747     0E2D  0859               	movf	set_time@fp,w
  3748     0E2E  3E03               	addlw	3
  3749     0E2F  00D9               	movwf	set_time@fp
  3750     0E30  085A               	movf	set_time@fp+1,w
  3751     0E31  1803               	skipnc
  3752     0E32  3E01               	addlw	1
  3753     0E33  3E00               	addlw	0
  3754     0E34  00DA               	movwf	set_time@fp+1
  3755                           
  3756                           ;car_black_box_def.c: 327:         }
  3757     0E35  2E3C               	goto	l4055
  3758     0E36                     l4053:
  3759                           
  3760                           ;car_black_box_def.c: 329:             fp=3;
  3761     0E36  3003               	movlw	3
  3762     0E37  1283               	bcf	3,5	;RP0=0, select bank0
  3763     0E38  1303               	bcf	3,6	;RP1=0, select bank0
  3764     0E39  00D9               	movwf	set_time@fp
  3765     0E3A  3000               	movlw	0
  3766     0E3B  00DA               	movwf	set_time@fp+1
  3767     0E3C                     l4055:
  3768                           
  3769                           ;car_black_box_def.c: 331:     if(key == 0x37 )
  3770     0E3C  3037               	movlw	55
  3771     0E3D  062A               	xorwf	set_time@key,w
  3772     0E3E  1D03               	btfss	3,2
  3773     0E3F  2E41               	goto	u3741
  3774     0E40  2E42               	goto	u3740
  3775     0E41                     u3741:
  3776     0E41  2EC1               	goto	l4101
  3777     0E42                     u3740:
  3778     0E42                     l4057:
  3779                           
  3780                           ;car_black_box_def.c: 332:     {;car_black_box_def.c: 333:         if(fp == 3)
  3781     0E42  3003               	movlw	3
  3782     0E43  0659               	xorwf	set_time@fp,w
  3783     0E44  045A               	iorwf	set_time@fp+1,w
  3784     0E45  1D03               	btfss	3,2
  3785     0E46  2E48               	goto	u3751
  3786     0E47  2E49               	goto	u3750
  3787     0E48                     u3751:
  3788     0E48  2E71               	goto	l4073
  3789     0E49                     u3750:
  3790     0E49                     l4059:
  3791                           
  3792                           ;car_black_box_def.c: 334:         {;car_black_box_def.c: 335:             if(time[1]++ 
      +                          == '9' && time[0] < '2')
  3793     0E49  3001               	movlw	1
  3794     0E4A  00AB               	movwf	??_set_time
  3795     0E4B  082B               	movf	??_set_time,w
  3796     0E4C  07D3               	addwf	_time+1,f
  3797     0E4D  303A               	movlw	58
  3798     0E4E  0653               	xorwf	_time+1,w
  3799     0E4F  1D03               	btfss	3,2
  3800     0E50  2E52               	goto	u3761
  3801     0E51  2E53               	goto	u3760
  3802     0E52                     u3761:
  3803     0E52  2E60               	goto	l4067
  3804     0E53                     u3760:
  3805     0E53                     l4061:
  3806     0E53  3032               	movlw	50
  3807     0E54  0252               	subwf	_time,w
  3808     0E55  1803               	skipnc
  3809     0E56  2E58               	goto	u3771
  3810     0E57  2E59               	goto	u3770
  3811     0E58                     u3771:
  3812     0E58  2E60               	goto	l4067
  3813     0E59                     u3770:
  3814     0E59                     l4063:
  3815                           
  3816                           ;car_black_box_def.c: 336:             {;car_black_box_def.c: 337:                 time[
      +                          0]++;
  3817     0E59  3001               	movlw	1
  3818     0E5A  00AB               	movwf	??_set_time
  3819     0E5B  082B               	movf	??_set_time,w
  3820     0E5C  07D2               	addwf	_time,f
  3821     0E5D                     l4065:
  3822                           
  3823                           ;car_black_box_def.c: 338:                 time[1]='0';
  3824     0E5D  3030               	movlw	48
  3825     0E5E  00D3               	movwf	_time+1
  3826                           
  3827                           ;car_black_box_def.c: 339:             }
  3828     0E5F  2EC1               	goto	l4101
  3829     0E60                     l4067:
  3830     0E60  3032               	movlw	50
  3831     0E61  0652               	xorwf	_time,w
  3832     0E62  1D03               	btfss	3,2
  3833     0E63  2E65               	goto	u3781
  3834     0E64  2E66               	goto	u3780
  3835     0E65                     u3781:
  3836     0E65  2EC1               	goto	l4101
  3837     0E66                     u3780:
  3838     0E66                     l4069:
  3839                           
  3840                           ;car_black_box_def.c: 341:             {;car_black_box_def.c: 342:                 if(ti
      +                          me[1] =='4')
  3841     0E66  3034               	movlw	52
  3842     0E67  0653               	xorwf	_time+1,w
  3843     0E68  1D03               	btfss	3,2
  3844     0E69  2E6B               	goto	u3791
  3845     0E6A  2E6C               	goto	u3790
  3846     0E6B                     u3791:
  3847     0E6B  2EC1               	goto	l390
  3848     0E6C                     u3790:
  3849     0E6C                     l4071:
  3850                           
  3851                           ;car_black_box_def.c: 343:                 {;car_black_box_def.c: 344:                  
      +                             time[1]='0';
  3852     0E6C  3030               	movlw	48
  3853     0E6D  00D3               	movwf	_time+1
  3854                           
  3855                           ;car_black_box_def.c: 345:                     time[0]='0';
  3856     0E6E  3030               	movlw	48
  3857     0E6F  00D2               	movwf	_time
  3858     0E70  2EC1               	goto	l4101
  3859     0E71                     l4073:
  3860     0E71  3006               	movlw	6
  3861     0E72  0659               	xorwf	set_time@fp,w
  3862     0E73  045A               	iorwf	set_time@fp+1,w
  3863     0E74  1D03               	btfss	3,2
  3864     0E75  2E77               	goto	u3801
  3865     0E76  2E78               	goto	u3800
  3866     0E77                     u3801:
  3867     0E77  2E99               	goto	l4087
  3868     0E78                     u3800:
  3869     0E78                     l4075:
  3870                           
  3871                           ;car_black_box_def.c: 350:         {;car_black_box_def.c: 351:             if(time[3]++ 
      +                          == '9' && time[2] < '6')
  3872     0E78  3001               	movlw	1
  3873     0E79  00AB               	movwf	??_set_time
  3874     0E7A  082B               	movf	??_set_time,w
  3875     0E7B  07D5               	addwf	_time+3,f
  3876     0E7C  303A               	movlw	58
  3877     0E7D  0655               	xorwf	_time+3,w
  3878     0E7E  1D03               	btfss	3,2
  3879     0E7F  2E81               	goto	u3811
  3880     0E80  2E82               	goto	u3810
  3881     0E81                     u3811:
  3882     0E81  2E8E               	goto	l4083
  3883     0E82                     u3810:
  3884     0E82                     l4077:
  3885     0E82  3036               	movlw	54
  3886     0E83  0254               	subwf	_time+2,w
  3887     0E84  1803               	skipnc
  3888     0E85  2E87               	goto	u3821
  3889     0E86  2E88               	goto	u3820
  3890     0E87                     u3821:
  3891     0E87  2E8E               	goto	l4083
  3892     0E88                     u3820:
  3893     0E88                     l4079:
  3894                           
  3895                           ;car_black_box_def.c: 352:             {;car_black_box_def.c: 353:                 time[
      +                          2]++;
  3896     0E88  3001               	movlw	1
  3897     0E89  00AB               	movwf	??_set_time
  3898     0E8A  082B               	movf	??_set_time,w
  3899     0E8B  07D4               	addwf	_time+2,f
  3900     0E8C                     l4081:
  3901                           
  3902                           ;car_black_box_def.c: 354:                 time[3]='0';
  3903     0E8C  3030               	movlw	48
  3904     0E8D  00D5               	movwf	_time+3
  3905     0E8E                     l4083:
  3906                           
  3907                           ;car_black_box_def.c: 356:             if(time[2] == '6' )
  3908     0E8E  3036               	movlw	54
  3909     0E8F  0654               	xorwf	_time+2,w
  3910     0E90  1D03               	btfss	3,2
  3911     0E91  2E93               	goto	u3831
  3912     0E92  2E94               	goto	u3830
  3913     0E93                     u3831:
  3914     0E93  2EC1               	goto	l4101
  3915     0E94                     u3830:
  3916     0E94                     l4085:
  3917                           
  3918                           ;car_black_box_def.c: 357:             {;car_black_box_def.c: 358:                 time[
      +                          3]='0';
  3919     0E94  3030               	movlw	48
  3920     0E95  00D5               	movwf	_time+3
  3921                           
  3922                           ;car_black_box_def.c: 359:                 time[2]='0';
  3923     0E96  3030               	movlw	48
  3924     0E97  00D4               	movwf	_time+2
  3925     0E98  2EC1               	goto	l4101
  3926     0E99                     l4087:
  3927     0E99  3009               	movlw	9
  3928     0E9A  0659               	xorwf	set_time@fp,w
  3929     0E9B  045A               	iorwf	set_time@fp+1,w
  3930     0E9C  1D03               	btfss	3,2
  3931     0E9D  2E9F               	goto	u3841
  3932     0E9E  2EA0               	goto	u3840
  3933     0E9F                     u3841:
  3934     0E9F  2EC1               	goto	l390
  3935     0EA0                     u3840:
  3936     0EA0                     l4089:
  3937                           
  3938                           ;car_black_box_def.c: 363:         {;car_black_box_def.c: 364:             if(time[5]++ 
      +                          == '9' && time[4] < '6')
  3939     0EA0  3001               	movlw	1
  3940     0EA1  00AB               	movwf	??_set_time
  3941     0EA2  082B               	movf	??_set_time,w
  3942     0EA3  07D7               	addwf	_time+5,f
  3943     0EA4  303A               	movlw	58
  3944     0EA5  0657               	xorwf	_time+5,w
  3945     0EA6  1D03               	btfss	3,2
  3946     0EA7  2EA9               	goto	u3851
  3947     0EA8  2EAA               	goto	u3850
  3948     0EA9                     u3851:
  3949     0EA9  2EB6               	goto	l4097
  3950     0EAA                     u3850:
  3951     0EAA                     l4091:
  3952     0EAA  3036               	movlw	54
  3953     0EAB  0256               	subwf	_time+4,w
  3954     0EAC  1803               	skipnc
  3955     0EAD  2EAF               	goto	u3861
  3956     0EAE  2EB0               	goto	u3860
  3957     0EAF                     u3861:
  3958     0EAF  2EB6               	goto	l4097
  3959     0EB0                     u3860:
  3960     0EB0                     l4093:
  3961                           
  3962                           ;car_black_box_def.c: 365:             {;car_black_box_def.c: 366:                 time[
      +                          4]++;
  3963     0EB0  3001               	movlw	1
  3964     0EB1  00AB               	movwf	??_set_time
  3965     0EB2  082B               	movf	??_set_time,w
  3966     0EB3  07D6               	addwf	_time+4,f
  3967     0EB4                     l4095:
  3968                           
  3969                           ;car_black_box_def.c: 367:                 time[5]='0';
  3970     0EB4  3030               	movlw	48
  3971     0EB5  00D7               	movwf	_time+5
  3972     0EB6                     l4097:
  3973                           
  3974                           ;car_black_box_def.c: 369:             if(time[4] == '6' )
  3975     0EB6  3036               	movlw	54
  3976     0EB7  0656               	xorwf	_time+4,w
  3977     0EB8  1D03               	btfss	3,2
  3978     0EB9  2EBB               	goto	u3871
  3979     0EBA  2EBC               	goto	u3870
  3980     0EBB                     u3871:
  3981     0EBB  2EC1               	goto	l4101
  3982     0EBC                     u3870:
  3983     0EBC                     l4099:
  3984                           
  3985                           ;car_black_box_def.c: 370:             {;car_black_box_def.c: 371:                 time[
      +                          5]='0';
  3986     0EBC  3030               	movlw	48
  3987     0EBD  00D7               	movwf	_time+5
  3988                           
  3989                           ;car_black_box_def.c: 372:                 time[4]='0';
  3990     0EBE  3030               	movlw	48
  3991     0EBF  00D6               	movwf	_time+4
  3992     0EC0  2EC1               	goto	l4101
  3993     0EC1                     l390:
  3994     0EC1                     l4101:
  3995                           
  3996                           ;car_black_box_def.c: 376:     if(key == 0x1F )
  3997     0EC1  301F               	movlw	31
  3998     0EC2  062A               	xorwf	set_time@key,w
  3999     0EC3  1D03               	btfss	3,2
  4000     0EC4  2EC6               	goto	u3881
  4001     0EC5  2EC7               	goto	u3880
  4002     0EC6                     u3881:
  4003     0EC6  2EC8               	goto	l399
  4004     0EC7                     u3880:
  4005     0EC7                     l4103:
  4006                           
  4007                           ;car_black_box_def.c: 377:     {;car_black_box_def.c: 378:         return 0x03;
  4008     0EC7  3003               	movlw	3
  4009     0EC8                     l399:
  4010     0EC8  0008               	return
  4011     0EC9                     __end_of_set_time:
  4012                           
  4013                           	psect	text4
  4014     177E                     __ptext4:	
  4015 ;; *************** function _read_digital_keypad *****************
  4016 ;; Defined at:
  4017 ;;		line 10 in file "digital_keypad.c"
  4018 ;; Parameters:    Size  Location     Type
  4019 ;;  mode            1    wreg     unsigned char 
  4020 ;; Auto vars:     Size  Location     Type
  4021 ;;  mode            1    4[COMMON] unsigned char 
  4022 ;; Return value:  Size  Location     Type
  4023 ;;                  1    wreg      unsigned char 
  4024 ;; Registers used:
  4025 ;;		wreg, status,2, status,0
  4026 ;; Tracked objects:
  4027 ;;		On entry : 0/0
  4028 ;;		On exit  : 0/0
  4029 ;;		Unchanged: 0/0
  4030 ;; Data sizes:     COMMON   BANK0   BANK1   BANK3   BANK2
  4031 ;;      Params:         0       0       0       0       0
  4032 ;;      Locals:         1       0       0       0       0
  4033 ;;      Temps:          1       0       0       0       0
  4034 ;;      Totals:         2       0       0       0       0
  4035 ;;Total ram usage:        2 bytes
  4036 ;; Hardware stack levels used: 1
  4037 ;; Hardware stack levels required when called: 1
  4038 ;; This function calls:
  4039 ;;		Nothing
  4040 ;; This function is called by:
  4041 ;;		_main
  4042 ;; This function uses a non-reentrant model
  4043 ;;
  4044                           
  4045     177E                     _read_digital_keypad:	
  4046                           ;psect for function _read_digital_keypad
  4047                           
  4048                           
  4049                           ;incstack = 0
  4050                           ; Regs used in _read_digital_keypad: [wreg+status,2+status,0]
  4051                           ;read_digital_keypad@mode stored from wreg
  4052     177E  00F4               	movwf	read_digital_keypad@mode
  4053     177F                     l3763:
  4054                           
  4055                           ;digital_keypad.c: 10: unsigned char read_digital_keypad(unsigned char mode);digital_key
      +                          pad.c: 11: {;digital_keypad.c: 12:     static unsigned char once = 1;;digital_keypad.c: 
      +                          14:     if (mode == 0)
  4056     177F  0874               	movf	read_digital_keypad@mode,w
  4057     1780  1D03               	btfss	3,2
  4058     1781  2F83               	goto	u3351
  4059     1782  2F84               	goto	u3350
  4060     1783                     u3351:
  4061     1783  2F89               	goto	l3771
  4062     1784                     u3350:
  4063     1784                     l3765:
  4064                           
  4065                           ;digital_keypad.c: 15:     {;digital_keypad.c: 16:         return PORTB & 0x3F;
  4066     1784  1283               	bcf	3,5	;RP0=0, select bank0
  4067     1785  1303               	bcf	3,6	;RP1=0, select bank0
  4068     1786  0806               	movf	6,w	;volatile
  4069     1787  393F               	andlw	63
  4070     1788  2FA7               	goto	l194
  4071     1789                     l3771:
  4072                           
  4073                           ;digital_keypad.c: 19:     {;digital_keypad.c: 20:         if (((PORTB & 0x3F) != 0x3F) 
      +                          && once)
  4074     1789  303F               	movlw	63
  4075     178A  1283               	bcf	3,5	;RP0=0, select bank0
  4076     178B  1303               	bcf	3,6	;RP1=0, select bank0
  4077     178C  0506               	andwf	6,w	;volatile
  4078     178D  00F3               	movwf	??_read_digital_keypad
  4079     178E  303F               	movlw	63
  4080     178F  0673               	xorwf	??_read_digital_keypad,w
  4081     1790  1903               	btfsc	3,2
  4082     1791  2F93               	goto	u3361
  4083     1792  2F94               	goto	u3360
  4084     1793                     u3361:
  4085     1793  2F9B               	goto	l3783
  4086     1794                     u3360:
  4087     1794                     l3773:
  4088     1794  087A               	movf	read_digital_keypad@once,w
  4089     1795  1903               	btfsc	3,2
  4090     1796  2F98               	goto	u3371
  4091     1797  2F99               	goto	u3370
  4092     1798                     u3371:
  4093     1798  2F9B               	goto	l3783
  4094     1799                     u3370:
  4095     1799                     l3775:
  4096                           
  4097                           ;digital_keypad.c: 21:         {;digital_keypad.c: 22:             once = 0;
  4098     1799  01FA               	clrf	read_digital_keypad@once
  4099     179A  2F84               	goto	l3765
  4100     179B                     l3783:
  4101     179B  303F               	movlw	63
  4102     179C  0506               	andwf	6,w	;volatile
  4103     179D  00F3               	movwf	??_read_digital_keypad
  4104     179E  303F               	movlw	63
  4105     179F  0673               	xorwf	??_read_digital_keypad,w
  4106     17A0  1D03               	btfss	3,2
  4107     17A1  2FA3               	goto	u3381
  4108     17A2  2FA4               	goto	u3380
  4109     17A3                     u3381:
  4110     17A3  2FA6               	goto	l3787
  4111     17A4                     u3380:
  4112     17A4                     l3785:
  4113                           
  4114                           ;digital_keypad.c: 27:         {;digital_keypad.c: 28:             once = 1;
  4115     17A4  01FA               	clrf	read_digital_keypad@once
  4116     17A5  0AFA               	incf	read_digital_keypad@once,f
  4117     17A6                     l3787:
  4118                           
  4119                           ;digital_keypad.c: 32:     return 0x3F;
  4120     17A6  303F               	movlw	63
  4121     17A7                     l194:
  4122     17A7  0008               	return
  4123     17A8                     __end_of_read_digital_keypad:
  4124                           
  4125                           	psect	text5
  4126     165A                     __ptext5:	
  4127 ;; *************** function _read_adc *****************
  4128 ;; Defined at:
  4129 ;;		line 12 in file "adc.c"
  4130 ;; Parameters:    Size  Location     Type
  4131 ;;		None
  4132 ;; Auto vars:     Size  Location     Type
  4133 ;;  adc_reg_val     2    0[BANK0 ] unsigned short 
  4134 ;; Return value:  Size  Location     Type
  4135 ;;                  2    3[COMMON] unsigned short 
  4136 ;; Registers used:
  4137 ;;		wreg
  4138 ;; Tracked objects:
  4139 ;;		On entry : 0/0
  4140 ;;		On exit  : 0/0
  4141 ;;		Unchanged: 0/0
  4142 ;; Data sizes:     COMMON   BANK0   BANK1   BANK3   BANK2
  4143 ;;      Params:         2       0       0       0       0
  4144 ;;      Locals:         0       2       0       0       0
  4145 ;;      Temps:          0       0       0       0       0
  4146 ;;      Totals:         2       2       0       0       0
  4147 ;;Total ram usage:        4 bytes
  4148 ;; Hardware stack levels used: 1
  4149 ;; Hardware stack levels required when called: 1
  4150 ;; This function calls:
  4151 ;;		Nothing
  4152 ;; This function is called by:
  4153 ;;		_main
  4154 ;; This function uses a non-reentrant model
  4155 ;;
  4156                           
  4157     165A                     _read_adc:	
  4158                           ;psect for function _read_adc
  4159                           
  4160     165A                     l3791:	
  4161                           ;incstack = 0
  4162                           ; Regs used in _read_adc: [wreg]
  4163                           
  4164                           
  4165                           ;adc.c: 14:     unsigned short adc_reg_val;;adc.c: 17:     GO = 1;
  4166     165A  1283               	bcf	3,5	;RP0=0, select bank0
  4167     165B  1303               	bcf	3,6	;RP1=0, select bank0
  4168     165C  151F               	bsf	31,2	;volatile
  4169     165D                     l248:	
  4170                           ;adc.c: 20:     while (nDONE);
  4171                           
  4172     165D  191F               	btfsc	31,2	;volatile
  4173     165E  2E60               	goto	u3391
  4174     165F  2E61               	goto	u3390
  4175     1660                     u3391:
  4176     1660  2E5D               	goto	l248
  4177     1661                     u3390:
  4178     1661                     l3793:
  4179                           
  4180                           ;adc.c: 23:     adc_reg_val = (ADRESH << 8) | ADRESL;
  4181     1661  081E               	movf	30,w	;volatile
  4182     1662  00A1               	movwf	read_adc@adc_reg_val+1
  4183     1663  1683               	bsf	3,5	;RP0=1, select bank1
  4184     1664  1303               	bcf	3,6	;RP1=0, select bank1
  4185     1665  081E               	movf	30,w	;volatile
  4186     1666  1283               	bcf	3,5	;RP0=0, select bank0
  4187     1667  1303               	bcf	3,6	;RP1=0, select bank0
  4188     1668  00A0               	movwf	read_adc@adc_reg_val
  4189                           
  4190                           ;adc.c: 25:     return adc_reg_val;
  4191     1669  0821               	movf	read_adc@adc_reg_val+1,w
  4192     166A  00F4               	movwf	?_read_adc+1
  4193     166B  0820               	movf	read_adc@adc_reg_val,w
  4194     166C  00F3               	movwf	?_read_adc
  4195     166D                     l251:
  4196     166D  0008               	return
  4197     166E                     __end_of_read_adc:
  4198                           
  4199                           	psect	text6
  4200     073F                     __ptext6:	
  4201 ;; *************** function _login_menu *****************
  4202 ;; Defined at:
  4203 ;;		line 179 in file "car_black_box_def.c"
  4204 ;; Parameters:    Size  Location     Type
  4205 ;;  reset_flag      1    wreg     unsigned char 
  4206 ;;  key             1   10[BANK0 ] unsigned char 
  4207 ;; Auto vars:     Size  Location     Type
  4208 ;;  reset_flag      1   13[BANK0 ] unsigned char 
  4209 ;; Return value:  Size  Location     Type
  4210 ;;                  1    wreg      unsigned char 
  4211 ;; Registers used:
  4212 ;;		wreg, fsr0l, fsr0h, status,2, status,0, btemp+1, pclath, cstack
  4213 ;; Tracked objects:
  4214 ;;		On entry : 0/0
  4215 ;;		On exit  : 0/0
  4216 ;;		Unchanged: 0/0
  4217 ;; Data sizes:     COMMON   BANK0   BANK1   BANK3   BANK2
  4218 ;;      Params:         0       1       0       0       0
  4219 ;;      Locals:         0       1       0       0       0
  4220 ;;      Temps:          0       2       0       0       0
  4221 ;;      Totals:         0       4       0       0       0
  4222 ;;Total ram usage:        4 bytes
  4223 ;; Hardware stack levels used: 1
  4224 ;; Hardware stack levels required when called: 3
  4225 ;; This function calls:
  4226 ;;		_clcd_print
  4227 ;;		_clcd_putch
  4228 ;;		_clear_screen
  4229 ;; This function is called by:
  4230 ;;		_main
  4231 ;; This function uses a non-reentrant model
  4232 ;;
  4233                           
  4234     073F                     _login_menu:	
  4235                           ;psect for function _login_menu
  4236                           
  4237                           
  4238                           ;incstack = 0
  4239                           ; Regs used in _login_menu: [wreg-fsr0h+status,2+status,0+btemp+1+pclath+cstack]
  4240                           ;login_menu@reset_flag stored from wreg
  4241     073F  1283               	bcf	3,5	;RP0=0, select bank0
  4242     0740  1303               	bcf	3,6	;RP1=0, select bank0
  4243     0741  00AD               	movwf	login_menu@reset_flag
  4244     0742                     l3923:
  4245                           
  4246                           ;car_black_box_def.c: 179: unsigned char login_menu(unsigned char reset_flag,unsigned ch
      +                          ar key);car_black_box_def.c: 180: {;car_black_box_def.c: 182:     static unsigned char m
      +                          enu_pos;;car_black_box_def.c: 184:     if(reset_flag == 0x05)
  4247     0742  3005               	movlw	5
  4248     0743  062D               	xorwf	login_menu@reset_flag,w
  4249     0744  1D03               	btfss	3,2
  4250     0745  2F47               	goto	u3521
  4251     0746  2F48               	goto	u3520
  4252     0747                     u3521:
  4253     0747  2F4E               	goto	l3929
  4254     0748                     u3520:
  4255     0748                     l3925:
  4256                           
  4257                           ;car_black_box_def.c: 185:     {;car_black_box_def.c: 186:         menu_pos=0;
  4258     0748  01CF               	clrf	login_menu@menu_pos
  4259     0749                     l3927:
  4260                           
  4261                           ;car_black_box_def.c: 187:         clear_screen();
  4262     0749  160A  118A  2635  120A  118A  	fcall	_clear_screen
  4263     074E                     l3929:
  4264                           
  4265                           ;car_black_box_def.c: 190:     if(key == 0x2F && menu_pos < 4 )
  4266     074E  302F               	movlw	47
  4267     074F  1283               	bcf	3,5	;RP0=0, select bank0
  4268     0750  1303               	bcf	3,6	;RP1=0, select bank0
  4269     0751  062A               	xorwf	login_menu@key,w
  4270     0752  1D03               	btfss	3,2
  4271     0753  2F55               	goto	u3531
  4272     0754  2F56               	goto	u3530
  4273     0755                     u3531:
  4274     0755  2F66               	goto	l3937
  4275     0756                     u3530:
  4276     0756                     l3931:
  4277     0756  3004               	movlw	4
  4278     0757  024F               	subwf	login_menu@menu_pos,w
  4279     0758  1803               	skipnc
  4280     0759  2F5B               	goto	u3541
  4281     075A  2F5C               	goto	u3540
  4282     075B                     u3541:
  4283     075B  2F66               	goto	l3937
  4284     075C                     u3540:
  4285     075C                     l3933:
  4286                           
  4287                           ;car_black_box_def.c: 191:     {;car_black_box_def.c: 192:         menu_pos++;
  4288     075C  3001               	movlw	1
  4289     075D  00AB               	movwf	??_login_menu
  4290     075E  082B               	movf	??_login_menu,w
  4291     075F  07CF               	addwf	login_menu@menu_pos,f
  4292     0760                     l3935:
  4293                           
  4294                           ;car_black_box_def.c: 193:         clear_screen();
  4295     0760  160A  118A  2635  120A  118A  	fcall	_clear_screen
  4296                           
  4297                           ;car_black_box_def.c: 195:     }
  4298     0765  2F74               	goto	l3945
  4299     0766                     l3937:
  4300     0766  3037               	movlw	55
  4301     0767  062A               	xorwf	login_menu@key,w
  4302     0768  1D03               	btfss	3,2
  4303     0769  2F6B               	goto	u3551
  4304     076A  2F6C               	goto	u3550
  4305     076B                     u3551:
  4306     076B  2F74               	goto	l3945
  4307     076C                     u3550:
  4308     076C                     l3939:
  4309     076C  084F               	movf	login_menu@menu_pos,w
  4310     076D  1903               	btfsc	3,2
  4311     076E  2F70               	goto	u3561
  4312     076F  2F71               	goto	u3560
  4313     0770                     u3561:
  4314     0770  2F74               	goto	l3945
  4315     0771                     u3560:
  4316     0771                     l3941:
  4317                           
  4318                           ;car_black_box_def.c: 197:     {;car_black_box_def.c: 198:         menu_pos--;
  4319     0771  3001               	movlw	1
  4320     0772  02CF               	subwf	login_menu@menu_pos,f
  4321     0773  2F60               	goto	l3935
  4322     0774                     l3945:
  4323                           
  4324                           ;car_black_box_def.c: 202:     if( menu_pos < 4 )
  4325     0774  3004               	movlw	4
  4326     0775  1283               	bcf	3,5	;RP0=0, select bank0
  4327     0776  1303               	bcf	3,6	;RP1=0, select bank0
  4328     0777  024F               	subwf	login_menu@menu_pos,w
  4329     0778  1803               	skipnc
  4330     0779  2F7B               	goto	u3571
  4331     077A  2F7C               	goto	u3570
  4332     077B                     u3571:
  4333     077B  2FAF               	goto	l3953
  4334     077C                     u3570:
  4335     077C                     l3947:
  4336                           
  4337                           ;car_black_box_def.c: 203:     {;car_black_box_def.c: 204:         clcd_putch('*',(0x80 
      +                          + 0));
  4338     077C  3080               	movlw	128
  4339     077D  00A8               	movwf	clcd_putch@addr
  4340     077E  302A               	movlw	42
  4341     077F  160A  118A  266E  120A  118A  	fcall	_clcd_putch
  4342     0784                     l3949:
  4343                           
  4344                           ;car_black_box_def.c: 205:         clcd_print(menu[menu_pos],(0x80 + 2));
  4345     0784  1283               	bcf	3,5	;RP0=0, select bank0
  4346     0785  1303               	bcf	3,6	;RP1=0, select bank0
  4347     0786  084F               	movf	login_menu@menu_pos,w
  4348     0787  00AB               	movwf	??_login_menu
  4349     0788  072B               	addwf	??_login_menu,w
  4350     0789  3EC8               	addlw	(low (_menu| 0))& (0+255)
  4351     078A  0084               	movwf	4
  4352     078B  1383               	bcf	3,7	;select IRP bank1
  4353     078C  0800               	movf	0,w
  4354     078D  00A1               	movwf	clcd_print@str
  4355     078E  0A84               	incf	4,f
  4356     078F  0800               	movf	0,w
  4357     0790  0384               	decf	4,f
  4358     0791  00A2               	movwf	clcd_print@str+1
  4359     0792  3082               	movlw	130
  4360     0793  00A3               	movwf	clcd_print@addr
  4361     0794  120A  158A  203C  120A  118A  	fcall	_clcd_print
  4362     0799                     l3951:
  4363                           
  4364                           ;car_black_box_def.c: 206:         clcd_print(menu[menu_pos+1],(0xC0 + 2));
  4365     0799  1283               	bcf	3,5	;RP0=0, select bank0
  4366     079A  1303               	bcf	3,6	;RP1=0, select bank0
  4367     079B  084F               	movf	login_menu@menu_pos,w
  4368     079C  00AB               	movwf	??_login_menu
  4369     079D  072B               	addwf	??_login_menu,w
  4370     079E  3ECA               	addlw	(low ((_menu| 0+2)))& (0+255)
  4371     079F  0084               	movwf	4
  4372     07A0  1383               	bcf	3,7	;select IRP bank1
  4373     07A1  0800               	movf	0,w
  4374     07A2  00A1               	movwf	clcd_print@str
  4375     07A3  0A84               	incf	4,f
  4376     07A4  0800               	movf	0,w
  4377     07A5  0384               	decf	4,f
  4378     07A6  00A2               	movwf	clcd_print@str+1
  4379     07A7  30C2               	movlw	194
  4380     07A8  00A3               	movwf	clcd_print@addr
  4381     07A9  120A  158A  203C  120A  118A  	fcall	_clcd_print
  4382                           
  4383                           ;car_black_box_def.c: 207:     }
  4384     07AE  2FE7               	goto	l3961
  4385     07AF                     l3953:
  4386     07AF  3004               	movlw	4
  4387     07B0  064F               	xorwf	login_menu@menu_pos,w
  4388     07B1  1D03               	btfss	3,2
  4389     07B2  2FB4               	goto	u3581
  4390     07B3  2FB5               	goto	u3580
  4391     07B4                     u3581:
  4392     07B4  2FE7               	goto	l3961
  4393     07B5                     u3580:
  4394     07B5                     l3955:
  4395                           
  4396                           ;car_black_box_def.c: 209:     {;car_black_box_def.c: 210:         clcd_putch('*',(0xC0 
      +                          + 0));
  4397     07B5  30C0               	movlw	192
  4398     07B6  00A8               	movwf	clcd_putch@addr
  4399     07B7  302A               	movlw	42
  4400     07B8  160A  118A  266E  120A  118A  	fcall	_clcd_putch
  4401     07BD                     l3957:
  4402                           
  4403                           ;car_black_box_def.c: 211:         clcd_print(menu[menu_pos-1],(0x80 + 2));
  4404     07BD  1283               	bcf	3,5	;RP0=0, select bank0
  4405     07BE  1303               	bcf	3,6	;RP1=0, select bank0
  4406     07BF  084F               	movf	login_menu@menu_pos,w
  4407     07C0  00AB               	movwf	??_login_menu
  4408     07C1  072B               	addwf	??_login_menu,w
  4409     07C2  3EC6               	addlw	(low ((_menu| 0+254)))& (0+255)
  4410     07C3  0084               	movwf	4
  4411     07C4  1383               	bcf	3,7	;select IRP bank1
  4412     07C5  0800               	movf	0,w
  4413     07C6  00A1               	movwf	clcd_print@str
  4414     07C7  0A84               	incf	4,f
  4415     07C8  0800               	movf	0,w
  4416     07C9  0384               	decf	4,f
  4417     07CA  00A2               	movwf	clcd_print@str+1
  4418     07CB  3082               	movlw	130
  4419     07CC  00A3               	movwf	clcd_print@addr
  4420     07CD  120A  158A  203C  120A  118A  	fcall	_clcd_print
  4421     07D2                     l3959:
  4422                           
  4423                           ;car_black_box_def.c: 212:         clcd_print(menu[menu_pos],(0xC0 + 2));
  4424     07D2  1283               	bcf	3,5	;RP0=0, select bank0
  4425     07D3  1303               	bcf	3,6	;RP1=0, select bank0
  4426     07D4  084F               	movf	login_menu@menu_pos,w
  4427     07D5  00AB               	movwf	??_login_menu
  4428     07D6  072B               	addwf	??_login_menu,w
  4429     07D7  3EC8               	addlw	(low (_menu| 0))& (0+255)
  4430     07D8  0084               	movwf	4
  4431     07D9  1383               	bcf	3,7	;select IRP bank1
  4432     07DA  0800               	movf	0,w
  4433     07DB  00A1               	movwf	clcd_print@str
  4434     07DC  0A84               	incf	4,f
  4435     07DD  0800               	movf	0,w
  4436     07DE  0384               	decf	4,f
  4437     07DF  00A2               	movwf	clcd_print@str+1
  4438     07E0  30C2               	movlw	194
  4439     07E1  00A3               	movwf	clcd_print@addr
  4440     07E2  120A  158A  203C  120A  118A  	fcall	_clcd_print
  4441     07E7                     l3961:
  4442                           
  4443                           ;car_black_box_def.c: 214:     return menu_pos;
  4444     07E7  1283               	bcf	3,5	;RP0=0, select bank0
  4445     07E8  1303               	bcf	3,6	;RP1=0, select bank0
  4446     07E9  084F               	movf	login_menu@menu_pos,w
  4447     07EA                     l352:
  4448     07EA  0008               	return
  4449     07EB                     __end_of_login_menu:
  4450                           
  4451                           	psect	text7
  4452     0327                     __ptext7:	
  4453 ;; *************** function _login *****************
  4454 ;; Defined at:
  4455 ;;		line 89 in file "car_black_box_def.c"
  4456 ;; Parameters:    Size  Location     Type
  4457 ;;  reset_flag      1    wreg     unsigned char 
  4458 ;;  key             1   10[BANK0 ] unsigned char 
  4459 ;; Auto vars:     Size  Location     Type
  4460 ;;  reset_flag      1   14[BANK0 ] unsigned char 
  4461 ;;  k               2   15[BANK0 ] int 
  4462 ;; Return value:  Size  Location     Type
  4463 ;;                  1    wreg      unsigned char 
  4464 ;; Registers used:
  4465 ;;		wreg, fsr0l, fsr0h, status,2, status,0, btemp+1, pclath, cstack
  4466 ;; Tracked objects:
  4467 ;;		On entry : 0/0
  4468 ;;		On exit  : 0/0
  4469 ;;		Unchanged: 0/0
  4470 ;; Data sizes:     COMMON   BANK0   BANK1   BANK3   BANK2
  4471 ;;      Params:         0       1       0       0       0
  4472 ;;      Locals:         0       3       0       0       0
  4473 ;;      Temps:          0       3       0       0       0
  4474 ;;      Totals:         0       7       0       0       0
  4475 ;;Total ram usage:        7 bytes
  4476 ;; Hardware stack levels used: 1
  4477 ;; Hardware stack levels required when called: 5
  4478 ;; This function calls:
  4479 ;;		___awdiv
  4480 ;;		___awmod
  4481 ;;		_clcd_print
  4482 ;;		_clcd_putch
  4483 ;;		_clcd_write
  4484 ;;		_clear_screen
  4485 ;;		_ext_eeprom_24C02_read
  4486 ;;		_strncmp
  4487 ;; This function is called by:
  4488 ;;		_main
  4489 ;; This function uses a non-reentrant model
  4490 ;;
  4491                           
  4492     0327                     _login:	
  4493                           ;psect for function _login
  4494                           
  4495                           
  4496                           ;incstack = 0
  4497                           ; Regs used in _login: [wreg-fsr0h+status,2+status,0+btemp+1+pclath+cstack]
  4498                           ;login@reset_flag stored from wreg
  4499     0327  1283               	bcf	3,5	;RP0=0, select bank0
  4500     0328  1303               	bcf	3,6	;RP1=0, select bank0
  4501     0329  00AE               	movwf	login@reset_flag
  4502     032A                     l3811:
  4503                           
  4504                           ;car_black_box_def.c: 89: unsigned char login(unsigned char reset_flag,unsigned char key
      +                          );car_black_box_def.c: 90: {;car_black_box_def.c: 91:     static char npasswd[4],i;;car_
      +                          black_box_def.c: 92:     static char spasswd[4];;car_black_box_def.c: 93:     static uns
      +                          igned char attempt_rem;;car_black_box_def.c: 94:     if( reset_flag == 0x01)
  4505     032A  032E               	decf	login@reset_flag,w
  4506     032B  1D03               	btfss	3,2
  4507     032C  2B2E               	goto	u3411
  4508     032D  2B2F               	goto	u3410
  4509     032E                     u3411:
  4510     032E  2B42               	goto	l3831
  4511     032F                     u3410:
  4512     032F                     l3813:
  4513                           
  4514                           ;car_black_box_def.c: 95:     {;car_black_box_def.c: 96:         i=0;
  4515     032F  01D1               	clrf	login@i
  4516     0330                     l3815:
  4517                           
  4518                           ;car_black_box_def.c: 97:         attempt_rem=3;
  4519     0330  3003               	movlw	3
  4520     0331  00D0               	movwf	login@attempt_rem
  4521     0332                     l3817:
  4522                           
  4523                           ;car_black_box_def.c: 98:         npasswd[0]='\0';
  4524     0332  1683               	bsf	3,5	;RP0=1, select bank1
  4525     0333  1303               	bcf	3,6	;RP1=0, select bank1
  4526     0334  01B8               	clrf	login@npasswd^(0+128)
  4527     0335                     l3819:
  4528                           
  4529                           ;car_black_box_def.c: 99:         npasswd[1]='\0';
  4530     0335  01B9               	clrf	(login@npasswd^(0+128)+1)
  4531     0336                     l3821:
  4532                           
  4533                           ;car_black_box_def.c: 100:         npasswd[2]='\0';
  4534     0336  01BA               	clrf	(login@npasswd^(0+128)+2)
  4535     0337                     l3823:
  4536                           
  4537                           ;car_black_box_def.c: 101:         npasswd[3]='\0';
  4538     0337  01BB               	clrf	(login@npasswd^(0+128)+3)
  4539     0338                     l3825:
  4540                           
  4541                           ;car_black_box_def.c: 102:         key = 0x3F;
  4542     0338  303F               	movlw	63
  4543     0339  1283               	bcf	3,5	;RP0=0, select bank0
  4544     033A  1303               	bcf	3,6	;RP1=0, select bank0
  4545     033B  00AA               	movwf	login@key
  4546     033C                     l3827:
  4547                           
  4548                           ;car_black_box_def.c: 103:         return_time=5;
  4549     033C  3005               	movlw	5
  4550     033D  00CC               	movwf	_return_time
  4551     033E  3000               	movlw	0
  4552     033F  00CD               	movwf	_return_time+1
  4553     0340                     l3829:
  4554                           
  4555                           ;car_black_box_def.c: 104:         sec=0;
  4556     0340  01C6               	clrf	_sec
  4557     0341  01C7               	clrf	_sec+1
  4558     0342                     l3831:
  4559                           
  4560                           ;car_black_box_def.c: 106:     if(return_time == 0)
  4561     0342  084C               	movf	_return_time,w
  4562     0343  044D               	iorwf	_return_time+1,w
  4563     0344  1D03               	btfss	3,2
  4564     0345  2B47               	goto	u3421
  4565     0346  2B48               	goto	u3420
  4566     0347                     u3421:
  4567     0347  2B4A               	goto	l3837
  4568     0348                     u3420:
  4569     0348                     l3833:
  4570                           
  4571                           ;car_black_box_def.c: 107:     {;car_black_box_def.c: 108:         return 0x03 ;
  4572     0348  3003               	movlw	3
  4573     0349  2CB8               	goto	l324
  4574     034A                     l3837:
  4575                           
  4576                           ;car_black_box_def.c: 111:     if(key == 0x37 && i < 4)
  4577     034A  3037               	movlw	55
  4578     034B  062A               	xorwf	login@key,w
  4579     034C  1D03               	btfss	3,2
  4580     034D  2B4F               	goto	u3431
  4581     034E  2B50               	goto	u3430
  4582     034F                     u3431:
  4583     034F  2B70               	goto	l3849
  4584     0350                     u3430:
  4585     0350                     l3839:
  4586     0350  3004               	movlw	4
  4587     0351  0251               	subwf	login@i,w
  4588     0352  1803               	skipnc
  4589     0353  2B55               	goto	u3441
  4590     0354  2B56               	goto	u3440
  4591     0355                     u3441:
  4592     0355  2B70               	goto	l3849
  4593     0356                     u3440:
  4594     0356                     l3841:
  4595                           
  4596                           ;car_black_box_def.c: 112:     {;car_black_box_def.c: 113:         npasswd[i]='1';
  4597     0356  0851               	movf	login@i,w
  4598     0357  3EB8               	addlw	(low (login@npasswd| 0))& (0+255)
  4599     0358  0084               	movwf	4
  4600     0359  3031               	movlw	49
  4601     035A  1383               	bcf	3,7	;select IRP bank1
  4602     035B  0080               	movwf	0
  4603     035C                     l3843:
  4604                           
  4605                           ;car_black_box_def.c: 114:         i++;
  4606     035C  3001               	movlw	1
  4607     035D  00AB               	movwf	??_login
  4608     035E  082B               	movf	??_login,w
  4609     035F  07D1               	addwf	login@i,f
  4610     0360                     l3845:
  4611                           
  4612                           ;car_black_box_def.c: 115:         clcd_putch('*',(0xC0 + i+2));
  4613     0360  0851               	movf	login@i,w
  4614     0361  3EC2               	addlw	194
  4615     0362  00A8               	movwf	clcd_putch@addr
  4616     0363  302A               	movlw	42
  4617     0364  160A  118A  266E  120A  118A  	fcall	_clcd_putch
  4618     0369                     l3847:
  4619                           
  4620                           ;car_black_box_def.c: 116:         return_time=5;
  4621     0369  3005               	movlw	5
  4622     036A  1283               	bcf	3,5	;RP0=0, select bank0
  4623     036B  1303               	bcf	3,6	;RP1=0, select bank0
  4624     036C  00CC               	movwf	_return_time
  4625     036D  3000               	movlw	0
  4626     036E  00CD               	movwf	_return_time+1
  4627                           
  4628                           ;car_black_box_def.c: 117:     }
  4629     036F  2B90               	goto	l3861
  4630     0370                     l3849:
  4631     0370  302F               	movlw	47
  4632     0371  062A               	xorwf	login@key,w
  4633     0372  1D03               	btfss	3,2
  4634     0373  2B75               	goto	u3451
  4635     0374  2B76               	goto	u3450
  4636     0375                     u3451:
  4637     0375  2B90               	goto	l3861
  4638     0376                     u3450:
  4639     0376                     l3851:
  4640     0376  3004               	movlw	4
  4641     0377  0251               	subwf	login@i,w
  4642     0378  1803               	skipnc
  4643     0379  2B7B               	goto	u3461
  4644     037A  2B7C               	goto	u3460
  4645     037B                     u3461:
  4646     037B  2B90               	goto	l3861
  4647     037C                     u3460:
  4648     037C                     l3853:
  4649                           
  4650                           ;car_black_box_def.c: 119:     {;car_black_box_def.c: 120:         npasswd[i]='0';
  4651     037C  0851               	movf	login@i,w
  4652     037D  3EB8               	addlw	(low (login@npasswd| 0))& (0+255)
  4653     037E  0084               	movwf	4
  4654     037F  3030               	movlw	48
  4655     0380  1383               	bcf	3,7	;select IRP bank1
  4656     0381  0080               	movwf	0
  4657     0382                     l3855:
  4658                           
  4659                           ;car_black_box_def.c: 121:         i++;
  4660     0382  3001               	movlw	1
  4661     0383  00AB               	movwf	??_login
  4662     0384  082B               	movf	??_login,w
  4663     0385  07D1               	addwf	login@i,f
  4664     0386                     l3857:
  4665                           
  4666                           ;car_black_box_def.c: 122:         clcd_putch('*',(0xC0 + i+2));
  4667     0386  0851               	movf	login@i,w
  4668     0387  3EC2               	addlw	194
  4669     0388  00A8               	movwf	clcd_putch@addr
  4670     0389  302A               	movlw	42
  4671     038A  160A  118A  266E  120A  118A  	fcall	_clcd_putch
  4672     038F  2B69               	goto	l3847
  4673     0390                     l3861:
  4674                           
  4675                           ;car_black_box_def.c: 125:     if( i == 4 )
  4676     0390  3004               	movlw	4
  4677     0391  0651               	xorwf	login@i,w
  4678     0392  1D03               	btfss	3,2
  4679     0393  2B95               	goto	u3471
  4680     0394  2B96               	goto	u3470
  4681     0395                     u3471:
  4682     0395  2CB8               	goto	l324
  4683     0396                     u3470:
  4684     0396                     l3863:
  4685                           
  4686                           ;car_black_box_def.c: 126:     {;car_black_box_def.c: 127:         for(int k=0;k<4;k++)
  4687     0396  01AF               	clrf	login@k
  4688     0397  01B0               	clrf	login@k+1
  4689     0398                     l3869:
  4690                           
  4691                           ;car_black_box_def.c: 128:         {;car_black_box_def.c: 129:              spasswd[k]=e
      +                          xt_eeprom_24C02_read(k);
  4692     0398  1283               	bcf	3,5	;RP0=0, select bank0
  4693     0399  1303               	bcf	3,6	;RP1=0, select bank0
  4694     039A  082F               	movf	login@k,w
  4695     039B  3EB4               	addlw	(low (login@spasswd| 0))& (0+255)
  4696     039C  0084               	movwf	4
  4697     039D  082F               	movf	login@k,w
  4698     039E  120A  158A  20A2  120A  118A  	fcall	_ext_eeprom_24C02_read
  4699     03A3  1383               	bcf	3,7	;select IRP bank1
  4700     03A4  0080               	movwf	0
  4701     03A5                     l3871:
  4702                           
  4703                           ;car_black_box_def.c: 130:         }
  4704     03A5  3001               	movlw	1
  4705     03A6  1283               	bcf	3,5	;RP0=0, select bank0
  4706     03A7  1303               	bcf	3,6	;RP1=0, select bank0
  4707     03A8  07AF               	addwf	login@k,f
  4708     03A9  1803               	skipnc
  4709     03AA  0AB0               	incf	login@k+1,f
  4710     03AB  3000               	movlw	0
  4711     03AC  07B0               	addwf	login@k+1,f
  4712     03AD                     l3873:
  4713     03AD  0830               	movf	login@k+1,w
  4714     03AE  3A80               	xorlw	128
  4715     03AF  00FF               	movwf	btemp+1
  4716     03B0  3080               	movlw	128
  4717     03B1  027F               	subwf	btemp+1,w
  4718     03B2  1D03               	skipz
  4719     03B3  2BB6               	goto	u3485
  4720     03B4  3004               	movlw	4
  4721     03B5  022F               	subwf	login@k,w
  4722     03B6                     u3485:
  4723     03B6  1C03               	skipc
  4724     03B7  2BB9               	goto	u3481
  4725     03B8  2BBA               	goto	u3480
  4726     03B9                     u3481:
  4727     03B9  2B98               	goto	l3869
  4728     03BA                     u3480:
  4729     03BA                     l3875:
  4730                           
  4731                           ;car_black_box_def.c: 131:         if(strncmp(npasswd,spasswd,4)==0)
  4732     03BA  30B4               	movlw	(low (login@spasswd| 0))& (0+255)
  4733     03BB  00F3               	movwf	strncmp@s2
  4734     03BC  3004               	movlw	4
  4735     03BD  00F4               	movwf	strncmp@len
  4736     03BE  3000               	movlw	0
  4737     03BF  00F5               	movwf	strncmp@len+1
  4738     03C0  30B8               	movlw	(low (login@npasswd| 0))& (0+255)
  4739     03C1  120A  158A  21BC  120A  118A  	fcall	_strncmp
  4740     03C6  0873               	movf	?_strncmp,w
  4741     03C7  0474               	iorwf	?_strncmp+1,w
  4742     03C8  1D03               	btfss	3,2
  4743     03C9  2BCB               	goto	u3491
  4744     03CA  2BCC               	goto	u3490
  4745     03CB                     u3491:
  4746     03CB  2BCE               	goto	l3883
  4747     03CC                     u3490:
  4748     03CC                     l3877:
  4749                           
  4750                           ;car_black_box_def.c: 132:         {;car_black_box_def.c: 133:             return 0x01;
  4751     03CC  3001               	movlw	1
  4752     03CD  2CB8               	goto	l324
  4753     03CE                     l3883:
  4754                           
  4755                           ;car_black_box_def.c: 136:         {;car_black_box_def.c: 137:             attempt_rem--
      +                          ;
  4756     03CE  3001               	movlw	1
  4757     03CF  1283               	bcf	3,5	;RP0=0, select bank0
  4758     03D0  1303               	bcf	3,6	;RP1=0, select bank0
  4759     03D1  02D0               	subwf	login@attempt_rem,f
  4760                           
  4761                           ;car_black_box_def.c: 138:             if(attempt_rem == 0)
  4762     03D2  0850               	movf	login@attempt_rem,w
  4763     03D3  1D03               	btfss	3,2
  4764     03D4  2BD6               	goto	u3501
  4765     03D5  2BD7               	goto	u3500
  4766     03D6                     u3501:
  4767     03D6  2C4F               	goto	l3901
  4768     03D7                     u3500:
  4769     03D7                     l3885:
  4770                           
  4771                           ;car_black_box_def.c: 139:             {;car_black_box_def.c: 140:                 clear
      +                          _screen();
  4772     03D7  160A  118A  2635  120A  118A  	fcall	_clear_screen
  4773                           
  4774                           ;car_black_box_def.c: 141:                 clcd_write(0x0C, 0);
  4775     03DC  01F3               	clrf	clcd_write@mode
  4776     03DD  300C               	movlw	12
  4777     03DE  160A  118A  26EF  120A  118A  	fcall	_clcd_write
  4778     03E3                     l3887:
  4779                           
  4780                           ;car_black_box_def.c: 142:                 _delay((unsigned long)((100)*(20000000/4000.0
      +                          )));
  4781     03E3  3003               	movlw	3
  4782     03E4  1283               	bcf	3,5	;RP0=0, select bank0
  4783     03E5  1303               	bcf	3,6	;RP1=0, select bank0
  4784     03E6  00AD               	movwf	??_login+2
  4785     03E7  308A               	movlw	138
  4786     03E8  00AC               	movwf	??_login+1
  4787     03E9  3055               	movlw	85
  4788     03EA  00AB               	movwf	??_login
  4789     03EB                     u4257:
  4790     03EB  0BAB               	decfsz	??_login,f
  4791     03EC  2BEB               	goto	u4257
  4792     03ED  0BAC               	decfsz	??_login+1,f
  4793     03EE  2BEB               	goto	u4257
  4794     03EF  0BAD               	decfsz	??_login+2,f
  4795     03F0  2BEB               	goto	u4257
  4796     03F1                     l3889:
  4797                           
  4798                           ;car_black_box_def.c: 143:                 clcd_print("You are blocked",(0x80 + 0));
  4799     03F1  3058               	movlw	low (STR_18| (0+32768))
  4800     03F2  1283               	bcf	3,5	;RP0=0, select bank0
  4801     03F3  1303               	bcf	3,6	;RP1=0, select bank0
  4802     03F4  00A1               	movwf	clcd_print@str
  4803     03F5  3086               	movlw	high (STR_18| (0+32768))
  4804     03F6  00A2               	movwf	clcd_print@str+1
  4805     03F7  3080               	movlw	128
  4806     03F8  00A3               	movwf	clcd_print@addr
  4807     03F9  120A  158A  203C  120A  118A  	fcall	_clcd_print
  4808     03FE                     l3891:
  4809                           
  4810                           ;car_black_box_def.c: 144:                 clcd_print("Wait for 60 seconds",(0xC0 + 0));
  4811     03FE  3000               	movlw	low (STR_19| (0+32768))
  4812     03FF  1283               	bcf	3,5	;RP0=0, select bank0
  4813     0400  1303               	bcf	3,6	;RP1=0, select bank0
  4814     0401  00A1               	movwf	clcd_print@str
  4815     0402  3086               	movlw	high (STR_19| (0+32768))
  4816     0403  00A2               	movwf	clcd_print@str+1
  4817     0404  30C0               	movlw	192
  4818     0405  00A3               	movwf	clcd_print@addr
  4819     0406  120A  158A  203C  120A  118A  	fcall	_clcd_print
  4820     040B                     l3893:
  4821                           
  4822                           ;car_black_box_def.c: 146:                 sec=60;
  4823     040B  303C               	movlw	60
  4824     040C  1283               	bcf	3,5	;RP0=0, select bank0
  4825     040D  1303               	bcf	3,6	;RP1=0, select bank0
  4826     040E  00C6               	movwf	_sec
  4827     040F  3000               	movlw	0
  4828     0410  00C7               	movwf	_sec+1
  4829                           
  4830                           ;car_black_box_def.c: 147:                 while(sec)
  4831     0411  2C44               	goto	l3897
  4832     0412                     l3895:
  4833                           
  4834                           ;car_black_box_def.c: 148:                 {;car_black_box_def.c: 149:                  
      +                            clcd_putch(sec/10+'0',(0xC0 + 9));
  4835     0412  30C9               	movlw	201
  4836     0413  00A8               	movwf	clcd_putch@addr
  4837     0414  300A               	movlw	10
  4838     0415  00A0               	movwf	___awdiv@divisor
  4839     0416  3000               	movlw	0
  4840     0417  00A1               	movwf	___awdiv@divisor+1
  4841     0418  0847               	movf	_sec+1,w
  4842     0419  00A3               	movwf	___awdiv@dividend+1
  4843     041A  0846               	movf	_sec,w
  4844     041B  00A2               	movwf	___awdiv@dividend
  4845     041C  120A  158A  24CC  120A  118A  	fcall	___awdiv
  4846     0421  1283               	bcf	3,5	;RP0=0, select bank0
  4847     0422  1303               	bcf	3,6	;RP1=0, select bank0
  4848     0423  0820               	movf	?___awdiv,w
  4849     0424  3E30               	addlw	48
  4850     0425  160A  118A  266E  120A  118A  	fcall	_clcd_putch
  4851                           
  4852                           ;car_black_box_def.c: 150:                    clcd_putch(sec%10+'0',(0xC0 + 10));
  4853     042A  30CA               	movlw	202
  4854     042B  1283               	bcf	3,5	;RP0=0, select bank0
  4855     042C  1303               	bcf	3,6	;RP1=0, select bank0
  4856     042D  00A8               	movwf	clcd_putch@addr
  4857     042E  300A               	movlw	10
  4858     042F  00A0               	movwf	___awmod@divisor
  4859     0430  3000               	movlw	0
  4860     0431  00A1               	movwf	___awmod@divisor+1
  4861     0432  0847               	movf	_sec+1,w
  4862     0433  00A3               	movwf	___awmod@dividend+1
  4863     0434  0846               	movf	_sec,w
  4864     0435  00A2               	movwf	___awmod@dividend
  4865     0436  120A  158A  22E3  120A  118A  	fcall	___awmod
  4866     043B  1283               	bcf	3,5	;RP0=0, select bank0
  4867     043C  1303               	bcf	3,6	;RP1=0, select bank0
  4868     043D  0820               	movf	?___awmod,w
  4869     043E  3E30               	addlw	48
  4870     043F  160A  118A  266E  120A  118A  	fcall	_clcd_putch
  4871     0444                     l3897:
  4872                           
  4873                           ;car_black_box_def.c: 147:                 while(sec)
  4874     0444  1283               	bcf	3,5	;RP0=0, select bank0
  4875     0445  1303               	bcf	3,6	;RP1=0, select bank0
  4876     0446  0846               	movf	_sec,w
  4877     0447  0447               	iorwf	_sec+1,w
  4878     0448  1D03               	btfss	3,2
  4879     0449  2C4B               	goto	u3511
  4880     044A  2C4C               	goto	u3510
  4881     044B                     u3511:
  4882     044B  2C12               	goto	l3895
  4883     044C                     u3510:
  4884     044C                     l3899:
  4885                           
  4886                           ;car_black_box_def.c: 152:                 attempt_rem=3;
  4887     044C  3003               	movlw	3
  4888     044D  00D0               	movwf	login@attempt_rem
  4889                           
  4890                           ;car_black_box_def.c: 153:             }
  4891     044E  2C87               	goto	l3909
  4892     044F                     l3901:
  4893                           
  4894                           ;car_black_box_def.c: 155:             {;car_black_box_def.c: 156:                 clear
      +                          _screen();
  4895     044F  160A  118A  2635  120A  118A  	fcall	_clear_screen
  4896     0454                     l3903:
  4897                           
  4898                           ;car_black_box_def.c: 157:                 clcd_print("wrong password",(0x80 + 0));
  4899     0454  30B5               	movlw	low (STR_20| (0+32768))
  4900     0455  1283               	bcf	3,5	;RP0=0, select bank0
  4901     0456  1303               	bcf	3,6	;RP1=0, select bank0
  4902     0457  00A1               	movwf	clcd_print@str
  4903     0458  3086               	movlw	high (STR_20| (0+32768))
  4904     0459  00A2               	movwf	clcd_print@str+1
  4905     045A  3080               	movlw	128
  4906     045B  00A3               	movwf	clcd_print@addr
  4907     045C  120A  158A  203C  120A  118A  	fcall	_clcd_print
  4908     0461                     l3905:
  4909                           
  4910                           ;car_black_box_def.c: 158:                 clcd_putch(attempt_rem+'0',(0xC0 + 0));
  4911     0461  30C0               	movlw	192
  4912     0462  1283               	bcf	3,5	;RP0=0, select bank0
  4913     0463  1303               	bcf	3,6	;RP1=0, select bank0
  4914     0464  00A8               	movwf	clcd_putch@addr
  4915     0465  0850               	movf	login@attempt_rem,w
  4916     0466  3E30               	addlw	48
  4917     0467  160A  118A  266E  120A  118A  	fcall	_clcd_putch
  4918                           
  4919                           ;car_black_box_def.c: 159:                 clcd_print("Attempt rem",(0xC0 + 2));
  4920     046C  30DF               	movlw	low (STR_21| (0+32768))
  4921     046D  1283               	bcf	3,5	;RP0=0, select bank0
  4922     046E  1303               	bcf	3,6	;RP1=0, select bank0
  4923     046F  00A1               	movwf	clcd_print@str
  4924     0470  3086               	movlw	high (STR_21| (0+32768))
  4925     0471  00A2               	movwf	clcd_print@str+1
  4926     0472  30C2               	movlw	194
  4927     0473  00A3               	movwf	clcd_print@addr
  4928     0474  120A  158A  203C  120A  118A  	fcall	_clcd_print
  4929     0479                     l3907:
  4930                           
  4931                           ;car_black_box_def.c: 160:                 _delay((unsigned long)((2000)*(20000000/4000.
      +                          0)));
  4932     0479  3033               	movlw	51
  4933     047A  1283               	bcf	3,5	;RP0=0, select bank0
  4934     047B  1303               	bcf	3,6	;RP1=0, select bank0
  4935     047C  00AD               	movwf	??_login+2
  4936     047D  30BB               	movlw	187
  4937     047E  00AC               	movwf	??_login+1
  4938     047F  30DF               	movlw	223
  4939     0480  00AB               	movwf	??_login
  4940     0481                     u4267:
  4941     0481  0BAB               	decfsz	??_login,f
  4942     0482  2C81               	goto	u4267
  4943     0483  0BAC               	decfsz	??_login+1,f
  4944     0484  2C81               	goto	u4267
  4945     0485  0BAD               	decfsz	??_login+2,f
  4946     0486  2C81               	goto	u4267
  4947     0487                     l3909:
  4948                           
  4949                           ;car_black_box_def.c: 162:             clear_screen();
  4950     0487  160A  118A  2635  120A  118A  	fcall	_clear_screen
  4951     048C                     l3911:
  4952                           
  4953                           ;car_black_box_def.c: 163:             clcd_print("Enter Password",(0x80 + 1));
  4954     048C  30A6               	movlw	low (STR_22| (0+32768))
  4955     048D  1283               	bcf	3,5	;RP0=0, select bank0
  4956     048E  1303               	bcf	3,6	;RP1=0, select bank0
  4957     048F  00A1               	movwf	clcd_print@str
  4958     0490  3086               	movlw	high (STR_22| (0+32768))
  4959     0491  00A2               	movwf	clcd_print@str+1
  4960     0492  3081               	movlw	129
  4961     0493  00A3               	movwf	clcd_print@addr
  4962     0494  120A  158A  203C  120A  118A  	fcall	_clcd_print
  4963     0499                     l3913:
  4964                           
  4965                           ;car_black_box_def.c: 164:             clcd_putch(' ',(0xC0 + 2));
  4966     0499  30C2               	movlw	194
  4967     049A  1283               	bcf	3,5	;RP0=0, select bank0
  4968     049B  1303               	bcf	3,6	;RP1=0, select bank0
  4969     049C  00A8               	movwf	clcd_putch@addr
  4970     049D  3020               	movlw	32
  4971     049E  160A  118A  266E  120A  118A  	fcall	_clcd_putch
  4972     04A3                     l3915:
  4973                           
  4974                           ;car_black_box_def.c: 165:             clcd_write(0x0F, 0);
  4975     04A3  01F3               	clrf	clcd_write@mode
  4976     04A4  300F               	movlw	15
  4977     04A5  160A  118A  26EF  120A  118A  	fcall	_clcd_write
  4978     04AA                     l3917:
  4979                           
  4980                           ;car_black_box_def.c: 166:             _delay((unsigned long)((100)*(20000000/4000000.0)
      +                          ));
  4981     04AA  30A5               	movlw	165
  4982     04AB  1283               	bcf	3,5	;RP0=0, select bank0
  4983     04AC  1303               	bcf	3,6	;RP1=0, select bank0
  4984     04AD  00AB               	movwf	??_login
  4985     04AE                     u4277:
  4986     04AE  0BAB               	decfsz	??_login,f
  4987     04AF  2CAE               	goto	u4277
  4988     04B0  2CB1               	nop2
  4989     04B1                     l3919:
  4990                           
  4991                           ;car_black_box_def.c: 167:             i=0;
  4992     04B1  1283               	bcf	3,5	;RP0=0, select bank0
  4993     04B2  1303               	bcf	3,6	;RP1=0, select bank0
  4994     04B3  01D1               	clrf	login@i
  4995     04B4                     l3921:
  4996                           
  4997                           ;car_black_box_def.c: 168:             return_time=5;
  4998     04B4  3005               	movlw	5
  4999     04B5  00CC               	movwf	_return_time
  5000     04B6  3000               	movlw	0
  5001     04B7  00CD               	movwf	_return_time+1
  5002     04B8                     l324:
  5003     04B8  0008               	return
  5004     04B9                     __end_of_login:
  5005                           
  5006                           	psect	text8
  5007     08A2                     __ptext8:	
  5008 ;; *************** function _ext_eeprom_24C02_read *****************
  5009 ;; Defined at:
  5010 ;;		line 5 in file "EEprom.c"
  5011 ;; Parameters:    Size  Location     Type
  5012 ;;  addr            1    wreg     unsigned char 
  5013 ;; Auto vars:     Size  Location     Type
  5014 ;;  addr            1    2[BANK0 ] unsigned char 
  5015 ;;  data            1    3[BANK0 ] unsigned char 
  5016 ;; Return value:  Size  Location     Type
  5017 ;;                  1    wreg      unsigned char 
  5018 ;; Registers used:
  5019 ;;		wreg, status,2, status,0, pclath, cstack
  5020 ;; Tracked objects:
  5021 ;;		On entry : 0/0
  5022 ;;		On exit  : 0/0
  5023 ;;		Unchanged: 0/0
  5024 ;; Data sizes:     COMMON   BANK0   BANK1   BANK3   BANK2
  5025 ;;      Params:         0       0       0       0       0
  5026 ;;      Locals:         0       2       0       0       0
  5027 ;;      Temps:          0       0       0       0       0
  5028 ;;      Totals:         0       2       0       0       0
  5029 ;;Total ram usage:        2 bytes
  5030 ;; Hardware stack levels used: 1
  5031 ;; Hardware stack levels required when called: 4
  5032 ;; This function calls:
  5033 ;;		_i2c_read
  5034 ;;		_i2c_rep_start
  5035 ;;		_i2c_start
  5036 ;;		_i2c_stop
  5037 ;;		_i2c_write
  5038 ;; This function is called by:
  5039 ;;		_login
  5040 ;;		_view_log
  5041 ;; This function uses a non-reentrant model
  5042 ;;
  5043                           
  5044     08A2                     _ext_eeprom_24C02_read:	
  5045                           ;psect for function _ext_eeprom_24C02_read
  5046                           
  5047                           
  5048                           ;incstack = 0
  5049                           ; Regs used in _ext_eeprom_24C02_read: [wreg+status,2+status,0+pclath+cstack]
  5050                           ;ext_eeprom_24C02_read@addr stored from wreg
  5051     08A2  1283               	bcf	3,5	;RP0=0, select bank0
  5052     08A3  1303               	bcf	3,6	;RP1=0, select bank0
  5053     08A4  00A2               	movwf	ext_eeprom_24C02_read@addr
  5054     08A5                     l3615:
  5055                           
  5056                           ;EEprom.c: 5: unsigned char ext_eeprom_24C02_read(unsigned char addr);EEprom.c: 6: {;EEp
      +                          rom.c: 7:     unsigned char data;;EEprom.c: 9:     i2c_start();
  5057     08A5  160A  118A  2600  120A  158A  	fcall	_i2c_start
  5058                           
  5059                           ;EEprom.c: 11:     i2c_write(0b10100000 );
  5060     08AA  30A0               	movlw	160
  5061     08AB  160A  118A  26B3  120A  158A  	fcall	_i2c_write
  5062                           
  5063                           ;EEprom.c: 12:     i2c_write(addr);
  5064     08B0  1283               	bcf	3,5	;RP0=0, select bank0
  5065     08B1  1303               	bcf	3,6	;RP1=0, select bank0
  5066     08B2  0822               	movf	ext_eeprom_24C02_read@addr,w
  5067     08B3  160A  118A  26B3  120A  158A  	fcall	_i2c_write
  5068                           
  5069                           ;EEprom.c: 13:     i2c_rep_start();
  5070     08B8  160A  118A  2612  120A  158A  	fcall	_i2c_rep_start
  5071                           
  5072                           ;EEprom.c: 14:     i2c_write(0b10100001 );
  5073     08BD  30A1               	movlw	161
  5074     08BE  160A  118A  26B3  120A  158A  	fcall	_i2c_write
  5075                           
  5076                           ;EEprom.c: 16:     data = i2c_read(0);
  5077     08C3  3000               	movlw	0
  5078     08C4  160A  118A  26CE  120A  158A  	fcall	_i2c_read
  5079     08C9  1283               	bcf	3,5	;RP0=0, select bank0
  5080     08CA  1303               	bcf	3,6	;RP1=0, select bank0
  5081     08CB  00A3               	movwf	ext_eeprom_24C02_read@data
  5082                           
  5083                           ;EEprom.c: 17:     i2c_stop();
  5084     08CC  160A  118A  2609  120A  158A  	fcall	_i2c_stop
  5085     08D1                     l3617:
  5086                           
  5087                           ;EEprom.c: 19:     return data;
  5088     08D1  1283               	bcf	3,5	;RP0=0, select bank0
  5089     08D2  1303               	bcf	3,6	;RP1=0, select bank0
  5090     08D3  0823               	movf	ext_eeprom_24C02_read@data,w
  5091     08D4                     l433:
  5092     08D4  0008               	return
  5093     08D5                     __end_of_ext_eeprom_24C02_read:
  5094                           
  5095                           	psect	text9
  5096     0A8F                     __ptext9:	
  5097 ;; *************** function _log_event *****************
  5098 ;; Defined at:
  5099 ;;		line 78 in file "car_black_box_def.c"
  5100 ;; Parameters:    Size  Location     Type
  5101 ;;  event           1    wreg     PTR unsigned char 
  5102 ;;		 -> main@event(3), 
  5103 ;;  speed           1   10[BANK0 ] unsigned char 
  5104 ;; Auto vars:     Size  Location     Type
  5105 ;;  event           1   13[BANK0 ] PTR unsigned char 
  5106 ;;		 -> main@event(3), 
  5107 ;; Return value:  Size  Location     Type
  5108 ;;                  1    wreg      void 
  5109 ;; Registers used:
  5110 ;;		wreg, fsr0l, fsr0h, status,2, status,0, btemp+1, pclath, cstack
  5111 ;; Tracked objects:
  5112 ;;		On entry : 0/0
  5113 ;;		On exit  : 0/0
  5114 ;;		Unchanged: 0/0
  5115 ;; Data sizes:     COMMON   BANK0   BANK1   BANK3   BANK2
  5116 ;;      Params:         0       1       0       0       0
  5117 ;;      Locals:         0       1       0       0       0
  5118 ;;      Temps:          0       2       0       0       0
  5119 ;;      Totals:         0       4       0       0       0
  5120 ;;Total ram usage:        4 bytes
  5121 ;; Hardware stack levels used: 1
  5122 ;; Hardware stack levels required when called: 6
  5123 ;; This function calls:
  5124 ;;		___awdiv
  5125 ;;		___awmod
  5126 ;;		_log_car_event
  5127 ;;		_strncpy
  5128 ;; This function is called by:
  5129 ;;		_main
  5130 ;; This function uses a non-reentrant model
  5131 ;;
  5132                           
  5133     0A8F                     _log_event:	
  5134                           ;psect for function _log_event
  5135                           
  5136                           
  5137                           ;incstack = 0
  5138                           ; Regs used in _log_event: [wreg-fsr0h+status,2+status,0+btemp+1+pclath+cstack]
  5139                           ;log_event@event stored from wreg
  5140     0A8F  1283               	bcf	3,5	;RP0=0, select bank0
  5141     0A90  1303               	bcf	3,6	;RP1=0, select bank0
  5142     0A91  00AD               	movwf	log_event@event
  5143     0A92                     l3753:
  5144                           
  5145                           ;car_black_box_def.c: 78: void log_event(char event[],unsigned char speed);car_black_box
      +                          _def.c: 79: {;car_black_box_def.c: 80:     strncpy(log,time,6);
  5146     0A92  3052               	movlw	(low (_time| 0))& (0+255)
  5147     0A93  00F3               	movwf	strncpy@from
  5148     0A94  3006               	movlw	6
  5149     0A95  00F4               	movwf	strncpy@size
  5150     0A96  3000               	movlw	0
  5151     0A97  00F5               	movwf	strncpy@size+1
  5152     0A98  30A0               	movlw	(low (_log| 0))& (0+255)
  5153     0A99  120A  158A  217F  120A  158A  	fcall	_strncpy
  5154                           
  5155                           ;car_black_box_def.c: 81:     strncpy(&log[6],event,2);
  5156     0A9E  1283               	bcf	3,5	;RP0=0, select bank0
  5157     0A9F  1303               	bcf	3,6	;RP1=0, select bank0
  5158     0AA0  082D               	movf	log_event@event,w
  5159     0AA1  00F3               	movwf	strncpy@from
  5160     0AA2  3002               	movlw	2
  5161     0AA3  00F4               	movwf	strncpy@size
  5162     0AA4  3000               	movlw	0
  5163     0AA5  00F5               	movwf	strncpy@size+1
  5164     0AA6  30A6               	movlw	(low ((_log| 0+6)))& (0+255)
  5165     0AA7  120A  158A  217F  120A  158A  	fcall	_strncpy
  5166     0AAC                     l3755:
  5167                           
  5168                           ;car_black_box_def.c: 82:     log[8]=speed/10;
  5169     0AAC  300A               	movlw	10
  5170     0AAD  1283               	bcf	3,5	;RP0=0, select bank0
  5171     0AAE  1303               	bcf	3,6	;RP1=0, select bank0
  5172     0AAF  00A0               	movwf	___awdiv@divisor
  5173     0AB0  3000               	movlw	0
  5174     0AB1  00A1               	movwf	___awdiv@divisor+1
  5175     0AB2  082A               	movf	log_event@speed,w
  5176     0AB3  00AB               	movwf	??_log_event
  5177     0AB4  01AC               	clrf	??_log_event+1
  5178     0AB5  082B               	movf	??_log_event,w
  5179     0AB6  00A2               	movwf	___awdiv@dividend
  5180     0AB7  082C               	movf	??_log_event+1,w
  5181     0AB8  00A3               	movwf	___awdiv@dividend+1
  5182     0AB9  120A  158A  24CC  120A  158A  	fcall	___awdiv
  5183     0ABE  1283               	bcf	3,5	;RP0=0, select bank0
  5184     0ABF  1303               	bcf	3,6	;RP1=0, select bank0
  5185     0AC0  0820               	movf	?___awdiv,w
  5186     0AC1  1683               	bsf	3,5	;RP0=1, select bank1
  5187     0AC2  1303               	bcf	3,6	;RP1=0, select bank1
  5188     0AC3  00A8               	movwf	(_log^(0+128)+8)
  5189     0AC4                     l3757:
  5190                           
  5191                           ;car_black_box_def.c: 83:     log[9]=speed%10;
  5192     0AC4  300A               	movlw	10
  5193     0AC5  1283               	bcf	3,5	;RP0=0, select bank0
  5194     0AC6  1303               	bcf	3,6	;RP1=0, select bank0
  5195     0AC7  00A0               	movwf	___awmod@divisor
  5196     0AC8  3000               	movlw	0
  5197     0AC9  00A1               	movwf	___awmod@divisor+1
  5198     0ACA  082A               	movf	log_event@speed,w
  5199     0ACB  00AB               	movwf	??_log_event
  5200     0ACC  01AC               	clrf	??_log_event+1
  5201     0ACD  082B               	movf	??_log_event,w
  5202     0ACE  00A2               	movwf	___awmod@dividend
  5203     0ACF  082C               	movf	??_log_event+1,w
  5204     0AD0  00A3               	movwf	___awmod@dividend+1
  5205     0AD1  120A  158A  22E3  120A  158A  	fcall	___awmod
  5206     0AD6  1283               	bcf	3,5	;RP0=0, select bank0
  5207     0AD7  1303               	bcf	3,6	;RP1=0, select bank0
  5208     0AD8  0820               	movf	?___awmod,w
  5209     0AD9  1683               	bsf	3,5	;RP0=1, select bank1
  5210     0ADA  1303               	bcf	3,6	;RP1=0, select bank1
  5211     0ADB  00A9               	movwf	(_log^(0+128)+9)
  5212     0ADC                     l3759:
  5213                           
  5214                           ;car_black_box_def.c: 84:     log[10]='\0';
  5215     0ADC  01AA               	clrf	(_log^(0+128)+10)
  5216     0ADD                     l3761:
  5217                           
  5218                           ;car_black_box_def.c: 85:     log_car_event();
  5219     0ADD  120A  158A  2142  120A  158A  	fcall	_log_car_event
  5220     0AE2                     l311:
  5221     0AE2  0008               	return
  5222     0AE3                     __end_of_log_event:
  5223                           
  5224                           	psect	text10
  5225     097F                     __ptext10:	
  5226 ;; *************** function _strncpy *****************
  5227 ;; Defined at:
  5228 ;;		line 8 in file "C:\Program Files\Microchip\xc8\v2.40\pic\sources\c90\common\strncpy.c"
  5229 ;; Parameters:    Size  Location     Type
  5230 ;;  to              1    wreg     PTR unsigned char 
  5231 ;;		 -> log(11), 
  5232 ;;  from            1    3[COMMON] PTR const unsigned char 
  5233 ;;		 -> time(7), main@event(3), 
  5234 ;;  size            2    4[COMMON] unsigned int 
  5235 ;; Auto vars:     Size  Location     Type
  5236 ;;  to              1    1[BANK0 ] PTR unsigned char 
  5237 ;;		 -> log(11), 
  5238 ;;  cp              1    2[BANK0 ] PTR unsigned char 
  5239 ;;		 -> log(11), 
  5240 ;; Return value:  Size  Location     Type
  5241 ;;                  1    wreg      PTR unsigned char 
  5242 ;; Registers used:
  5243 ;;		wreg, fsr0l, fsr0h, status,2, status,0
  5244 ;; Tracked objects:
  5245 ;;		On entry : 0/0
  5246 ;;		On exit  : 0/0
  5247 ;;		Unchanged: 0/0
  5248 ;; Data sizes:     COMMON   BANK0   BANK1   BANK3   BANK2
  5249 ;;      Params:         3       0       0       0       0
  5250 ;;      Locals:         0       2       0       0       0
  5251 ;;      Temps:          0       1       0       0       0
  5252 ;;      Totals:         3       3       0       0       0
  5253 ;;Total ram usage:        6 bytes
  5254 ;; Hardware stack levels used: 1
  5255 ;; Hardware stack levels required when called: 1
  5256 ;; This function calls:
  5257 ;;		Nothing
  5258 ;; This function is called by:
  5259 ;;		_log_event
  5260 ;; This function uses a non-reentrant model
  5261 ;;
  5262                           
  5263     097F                     _strncpy:	
  5264                           ;psect for function _strncpy
  5265                           
  5266                           
  5267                           ;incstack = 0
  5268                           ; Regs used in _strncpy: [wreg-fsr0h+status,2+status,0]
  5269                           ;strncpy@to stored from wreg
  5270     097F  1283               	bcf	3,5	;RP0=0, select bank0
  5271     0980  1303               	bcf	3,6	;RP1=0, select bank0
  5272     0981  00A1               	movwf	strncpy@to
  5273     0982                     l3599:
  5274     0982  0821               	movf	strncpy@to,w
  5275     0983  00A2               	movwf	strncpy@cp
  5276     0984  299E               	goto	l3607
  5277     0985                     l3601:
  5278     0985  3001               	movlw	1
  5279     0986  02F4               	subwf	strncpy@size,f
  5280     0987  3000               	movlw	0
  5281     0988  1C03               	skipc
  5282     0989  03F5               	decf	strncpy@size+1,f
  5283     098A  02F5               	subwf	strncpy@size+1,f
  5284     098B                     l3603:
  5285     098B  0873               	movf	strncpy@from,w
  5286     098C  0084               	movwf	4
  5287     098D  3001               	movlw	1
  5288     098E  07F3               	addwf	strncpy@from,f
  5289     098F  1383               	bcf	3,7	;select IRP bank0
  5290     0990  0800               	movf	0,w
  5291     0991  00A0               	movwf	??_strncpy
  5292     0992  0822               	movf	strncpy@cp,w
  5293     0993  0084               	movwf	4
  5294     0994  3001               	movlw	1
  5295     0995  07A2               	addwf	strncpy@cp,f
  5296     0996  0820               	movf	??_strncpy,w
  5297     0997  0080               	movwf	0
  5298     0998  0800               	movf	0,w
  5299     0999  1D03               	btfss	3,2
  5300     099A  299C               	goto	u3071
  5301     099B  299D               	goto	u3070
  5302     099C                     u3071:
  5303     099C  299E               	goto	l3607
  5304     099D                     u3070:
  5305     099D  29AD               	goto	l3613
  5306     099E                     l3607:
  5307     099E  0874               	movf	strncpy@size,w
  5308     099F  0475               	iorwf	strncpy@size+1,w
  5309     09A0  1D03               	btfss	3,2
  5310     09A1  29A3               	goto	u3081
  5311     09A2  29A4               	goto	u3080
  5312     09A3                     u3081:
  5313     09A3  2985               	goto	l3601
  5314     09A4                     u3080:
  5315     09A4  29AD               	goto	l3613
  5316     09A5                     l3609:
  5317     09A5  0822               	movf	strncpy@cp,w
  5318     09A6  0084               	movwf	4
  5319     09A7  1383               	bcf	3,7	;select IRP bank0
  5320     09A8  0180               	clrf	0
  5321     09A9                     l3611:
  5322     09A9  3001               	movlw	1
  5323     09AA  00A0               	movwf	??_strncpy
  5324     09AB  0820               	movf	??_strncpy,w
  5325     09AC  07A2               	addwf	strncpy@cp,f
  5326     09AD                     l3613:
  5327     09AD  3001               	movlw	1
  5328     09AE  02F4               	subwf	strncpy@size,f
  5329     09AF  3000               	movlw	0
  5330     09B0  1C03               	skipc
  5331     09B1  03F5               	decf	strncpy@size+1,f
  5332     09B2  02F5               	subwf	strncpy@size+1,f
  5333     09B3  0A74               	incf	strncpy@size,w
  5334     09B4  1D03               	skipz
  5335     09B5  29BA               	goto	u3091
  5336     09B6  0A75               	incf	strncpy@size+1,w
  5337     09B7  1D03               	btfss	3,2
  5338     09B8  29BA               	goto	u3091
  5339     09B9  29BB               	goto	u3090
  5340     09BA                     u3091:
  5341     09BA  29A5               	goto	l3609
  5342     09BB                     u3090:
  5343     09BB                     l1073:
  5344     09BB  0008               	return
  5345     09BC                     __end_of_strncpy:
  5346                           
  5347                           	psect	text11
  5348     0942                     __ptext11:	
  5349 ;; *************** function _log_car_event *****************
  5350 ;; Defined at:
  5351 ;;		line 61 in file "car_black_box_def.c"
  5352 ;; Parameters:    Size  Location     Type
  5353 ;;		None
  5354 ;; Auto vars:     Size  Location     Type
  5355 ;;  addr            1    9[BANK0 ] unsigned char 
  5356 ;; Return value:  Size  Location     Type
  5357 ;;                  1    wreg      void 
  5358 ;; Registers used:
  5359 ;;		wreg, fsr0l, fsr0h, status,2, status,0, btemp+1, pclath, cstack
  5360 ;; Tracked objects:
  5361 ;;		On entry : 0/0
  5362 ;;		On exit  : 0/0
  5363 ;;		Unchanged: 0/0
  5364 ;; Data sizes:     COMMON   BANK0   BANK1   BANK3   BANK2
  5365 ;;      Params:         0       0       0       0       0
  5366 ;;      Locals:         0       1       0       0       0
  5367 ;;      Temps:          0       1       0       0       0
  5368 ;;      Totals:         0       2       0       0       0
  5369 ;;Total ram usage:        2 bytes
  5370 ;; Hardware stack levels used: 1
  5371 ;; Hardware stack levels required when called: 5
  5372 ;; This function calls:
  5373 ;;		___bmul
  5374 ;;		_ext_eeprom_24C02_str_write
  5375 ;; This function is called by:
  5376 ;;		_log_event
  5377 ;; This function uses a non-reentrant model
  5378 ;;
  5379                           
  5380     0942                     _log_car_event:	
  5381                           ;psect for function _log_car_event
  5382                           
  5383     0942                     l3583:	
  5384                           ;incstack = 0
  5385                           ; Regs used in _log_car_event: [wreg-fsr0h+status,2+status,0+btemp+1+pclath+cstack]
  5386                           
  5387                           
  5388                           ;car_black_box_def.c: 63:     char addr;;car_black_box_def.c: 64:     addr = 5;
  5389     0942  3005               	movlw	5
  5390     0943  1283               	bcf	3,5	;RP0=0, select bank0
  5391     0944  1303               	bcf	3,6	;RP1=0, select bank0
  5392     0945  00A9               	movwf	log_car_event@addr
  5393     0946                     l3585:
  5394                           
  5395                           ;car_black_box_def.c: 65:     pos++;
  5396     0946  3001               	movlw	1
  5397     0947  00A8               	movwf	??_log_car_event
  5398     0948  0828               	movf	??_log_car_event,w
  5399     0949  07DB               	addwf	_pos,f
  5400     094A                     l3587:
  5401                           
  5402                           ;car_black_box_def.c: 66:     if(pos == 10)
  5403     094A  300A               	movlw	10
  5404     094B  065B               	xorwf	_pos,w
  5405     094C  1D03               	btfss	3,2
  5406     094D  294F               	goto	u3051
  5407     094E  2950               	goto	u3050
  5408     094F                     u3051:
  5409     094F  2951               	goto	l3591
  5410     0950                     u3050:
  5411     0950                     l3589:
  5412                           
  5413                           ;car_black_box_def.c: 67:     {;car_black_box_def.c: 68:         pos=0;
  5414     0950  01DB               	clrf	_pos
  5415     0951                     l3591:
  5416                           
  5417                           ;car_black_box_def.c: 70:     addr = pos *10 + addr;
  5418     0951  300A               	movlw	10
  5419     0952  00F3               	movwf	___bmul@multiplicand
  5420     0953  085B               	movf	_pos,w
  5421     0954  160A  118A  2683  120A  158A  	fcall	___bmul
  5422     0959  1283               	bcf	3,5	;RP0=0, select bank0
  5423     095A  1303               	bcf	3,6	;RP1=0, select bank0
  5424     095B  0729               	addwf	log_car_event@addr,w
  5425     095C  00A9               	movwf	log_car_event@addr
  5426     095D                     l3593:
  5427                           
  5428                           ;car_black_box_def.c: 72:     ext_eeprom_24C02_str_write(addr,log);
  5429     095D  30A0               	movlw	(low (_log| 0))& (0+255)
  5430     095E  00A4               	movwf	ext_eeprom_24C02_str_write@data
  5431     095F  3000               	movlw	0
  5432     0960  00A5               	movwf	ext_eeprom_24C02_str_write@data+1
  5433     0961  0829               	movf	log_car_event@addr,w
  5434     0962  120A  158A  200D  120A  158A  	fcall	_ext_eeprom_24C02_str_write
  5435     0967                     l3595:
  5436                           
  5437                           ;car_black_box_def.c: 73:     if(access<9)
  5438     0967  1283               	bcf	3,5	;RP0=0, select bank0
  5439     0968  1303               	bcf	3,6	;RP1=0, select bank0
  5440     0969  0849               	movf	_access+1,w
  5441     096A  3A80               	xorlw	128
  5442     096B  00FF               	movwf	btemp+1
  5443     096C  3080               	movlw	128
  5444     096D  027F               	subwf	btemp+1,w
  5445     096E  1D03               	skipz
  5446     096F  2972               	goto	u3065
  5447     0970  3009               	movlw	9
  5448     0971  0248               	subwf	_access,w
  5449     0972                     u3065:
  5450     0972  1803               	skipnc
  5451     0973  2975               	goto	u3061
  5452     0974  2976               	goto	u3060
  5453     0975                     u3061:
  5454     0975  297E               	goto	l308
  5455     0976                     u3060:
  5456     0976                     l3597:
  5457                           
  5458                           ;car_black_box_def.c: 74:         access++;
  5459     0976  3001               	movlw	1
  5460     0977  1283               	bcf	3,5	;RP0=0, select bank0
  5461     0978  1303               	bcf	3,6	;RP1=0, select bank0
  5462     0979  07C8               	addwf	_access,f
  5463     097A  1803               	skipnc
  5464     097B  0AC9               	incf	_access+1,f
  5465     097C  3000               	movlw	0
  5466     097D  07C9               	addwf	_access+1,f
  5467     097E                     l308:
  5468     097E  0008               	return
  5469     097F                     __end_of_log_car_event:
  5470                           
  5471                           	psect	text12
  5472     080D                     __ptext12:	
  5473 ;; *************** function _ext_eeprom_24C02_str_write *****************
  5474 ;; Defined at:
  5475 ;;		line 31 in file "EEprom.c"
  5476 ;; Parameters:    Size  Location     Type
  5477 ;;  addr            1    wreg     unsigned char 
  5478 ;;  data            2    4[BANK0 ] PTR unsigned char 
  5479 ;;		 -> log(11), STR_7(5), 
  5480 ;; Auto vars:     Size  Location     Type
  5481 ;;  addr            1    7[BANK0 ] unsigned char 
  5482 ;; Return value:  Size  Location     Type
  5483 ;;                  1    wreg      void 
  5484 ;; Registers used:
  5485 ;;		wreg, fsr0l, fsr0h, status,2, status,0, btemp+1, pclath, cstack
  5486 ;; Tracked objects:
  5487 ;;		On entry : 0/0
  5488 ;;		On exit  : 0/0
  5489 ;;		Unchanged: 0/0
  5490 ;; Data sizes:     COMMON   BANK0   BANK1   BANK3   BANK2
  5491 ;;      Params:         0       2       0       0       0
  5492 ;;      Locals:         0       1       0       0       0
  5493 ;;      Temps:          0       1       0       0       0
  5494 ;;      Totals:         0       4       0       0       0
  5495 ;;Total ram usage:        4 bytes
  5496 ;; Hardware stack levels used: 1
  5497 ;; Hardware stack levels required when called: 4
  5498 ;; This function calls:
  5499 ;;		_ext_eeprom_24C02_byte_write
  5500 ;; This function is called by:
  5501 ;;		_main
  5502 ;;		_log_car_event
  5503 ;; This function uses a non-reentrant model
  5504 ;;
  5505                           
  5506     080D                     _ext_eeprom_24C02_str_write:	
  5507                           ;psect for function _ext_eeprom_24C02_str_write
  5508                           
  5509                           
  5510                           ;incstack = 0
  5511                           ; Regs used in _ext_eeprom_24C02_str_write: [wreg-fsr0h+status,2+status,0+btemp+1+pclath
      +                          +cstack]
  5512                           ;ext_eeprom_24C02_str_write@addr stored from wreg
  5513     080D  1283               	bcf	3,5	;RP0=0, select bank0
  5514     080E  1303               	bcf	3,6	;RP1=0, select bank0
  5515     080F  00A7               	movwf	ext_eeprom_24C02_str_write@addr
  5516     0810                     l3447:
  5517                           
  5518                           ;EEprom.c: 31: void ext_eeprom_24C02_str_write(unsigned char addr,char *data);EEprom.c: 
      +                          32: {;EEprom.c: 33:     while(*data != 0)
  5519     0810  282D               	goto	l3455
  5520     0811                     l3449:
  5521                           
  5522                           ;EEprom.c: 34:     {;EEprom.c: 35:         ext_eeprom_24C02_byte_write(addr,*data);
  5523     0811  0825               	movf	ext_eeprom_24C02_str_write@data+1,w
  5524     0812  00FF               	movwf	btemp+1
  5525     0813  0824               	movf	ext_eeprom_24C02_str_write@data,w
  5526     0814  0084               	movwf	4
  5527     0815  160A  118A  2000  120A  158A  	fcall	stringtab
  5528     081A  00A2               	movwf	ext_eeprom_24C02_byte_write@data
  5529     081B  0827               	movf	ext_eeprom_24C02_str_write@addr,w
  5530     081C  160A  118A  2735  120A  158A  	fcall	_ext_eeprom_24C02_byte_write
  5531     0821                     l3451:
  5532                           
  5533                           ;EEprom.c: 36:         data++;
  5534     0821  3001               	movlw	1
  5535     0822  1283               	bcf	3,5	;RP0=0, select bank0
  5536     0823  1303               	bcf	3,6	;RP1=0, select bank0
  5537     0824  07A4               	addwf	ext_eeprom_24C02_str_write@data,f
  5538     0825  1803               	skipnc
  5539     0826  0AA5               	incf	ext_eeprom_24C02_str_write@data+1,f
  5540     0827  3000               	movlw	0
  5541     0828  07A5               	addwf	ext_eeprom_24C02_str_write@data+1,f
  5542     0829                     l3453:
  5543                           
  5544                           ;EEprom.c: 37:         addr++;
  5545     0829  3001               	movlw	1
  5546     082A  00A6               	movwf	??_ext_eeprom_24C02_str_write
  5547     082B  0826               	movf	??_ext_eeprom_24C02_str_write,w
  5548     082C  07A7               	addwf	ext_eeprom_24C02_str_write@addr,f
  5549     082D                     l3455:
  5550                           
  5551                           ;EEprom.c: 33:     while(*data != 0)
  5552     082D  0825               	movf	ext_eeprom_24C02_str_write@data+1,w
  5553     082E  00FF               	movwf	btemp+1
  5554     082F  0824               	movf	ext_eeprom_24C02_str_write@data,w
  5555     0830  0084               	movwf	4
  5556     0831  160A  118A  2000  120A  158A  	fcall	stringtab
  5557     0836  3A00               	xorlw	0
  5558     0837  1D03               	skipz
  5559     0838  283A               	goto	u2891
  5560     0839  283B               	goto	u2890
  5561     083A                     u2891:
  5562     083A  2811               	goto	l3449
  5563     083B                     u2890:
  5564     083B                     l442:
  5565     083B  0008               	return
  5566     083C                     __end_of_ext_eeprom_24C02_str_write:
  5567                           
  5568                           	psect	text13
  5569     1735                     __ptext13:	
  5570 ;; *************** function _ext_eeprom_24C02_byte_write *****************
  5571 ;; Defined at:
  5572 ;;		line 22 in file "EEprom.c"
  5573 ;; Parameters:    Size  Location     Type
  5574 ;;  addr            1    wreg     unsigned char 
  5575 ;;  data            1    2[BANK0 ] unsigned char 
  5576 ;; Auto vars:     Size  Location     Type
  5577 ;;  addr            1    3[BANK0 ] unsigned char 
  5578 ;;  ack             2    0        int 
  5579 ;; Return value:  Size  Location     Type
  5580 ;;                  1    wreg      void 
  5581 ;; Registers used:
  5582 ;;		wreg, status,2, status,0, pclath, cstack
  5583 ;; Tracked objects:
  5584 ;;		On entry : 0/0
  5585 ;;		On exit  : 0/0
  5586 ;;		Unchanged: 0/0
  5587 ;; Data sizes:     COMMON   BANK0   BANK1   BANK3   BANK2
  5588 ;;      Params:         0       1       0       0       0
  5589 ;;      Locals:         0       1       0       0       0
  5590 ;;      Temps:          0       0       0       0       0
  5591 ;;      Totals:         0       2       0       0       0
  5592 ;;Total ram usage:        2 bytes
  5593 ;; Hardware stack levels used: 1
  5594 ;; Hardware stack levels required when called: 3
  5595 ;; This function calls:
  5596 ;;		_i2c_start
  5597 ;;		_i2c_stop
  5598 ;;		_i2c_write
  5599 ;; This function is called by:
  5600 ;;		_ext_eeprom_24C02_str_write
  5601 ;; This function uses a non-reentrant model
  5602 ;;
  5603                           
  5604     1735                     _ext_eeprom_24C02_byte_write:	
  5605                           ;psect for function _ext_eeprom_24C02_byte_write
  5606                           
  5607                           
  5608                           ;incstack = 0
  5609                           ; Regs used in _ext_eeprom_24C02_byte_write: [wreg+status,2+status,0+pclath+cstack]
  5610                           ;ext_eeprom_24C02_byte_write@addr stored from wreg
  5611     1735  1283               	bcf	3,5	;RP0=0, select bank0
  5612     1736  1303               	bcf	3,6	;RP1=0, select bank0
  5613     1737  00A3               	movwf	ext_eeprom_24C02_byte_write@addr
  5614     1738                     l3445:
  5615                           
  5616                           ;EEprom.c: 22: void ext_eeprom_24C02_byte_write(unsigned char addr,char data);EEprom.c: 
      +                          23: {;EEprom.c: 24:     i2c_start();
  5617     1738  160A  118A  2600  160A  118A  	fcall	_i2c_start
  5618     173D  30A0               	movlw	160
  5619     173E  160A  118A  26B3  160A  118A  	fcall	_i2c_write
  5620                           
  5621                           ;EEprom.c: 26:     i2c_write(addr);
  5622     1743  1283               	bcf	3,5	;RP0=0, select bank0
  5623     1744  1303               	bcf	3,6	;RP1=0, select bank0
  5624     1745  0823               	movf	ext_eeprom_24C02_byte_write@addr,w
  5625     1746  160A  118A  26B3  160A  118A  	fcall	_i2c_write
  5626                           
  5627                           ;EEprom.c: 27:     i2c_write(data);
  5628     174B  1283               	bcf	3,5	;RP0=0, select bank0
  5629     174C  1303               	bcf	3,6	;RP1=0, select bank0
  5630     174D  0822               	movf	ext_eeprom_24C02_byte_write@data,w
  5631     174E  160A  118A  26B3  160A  118A  	fcall	_i2c_write
  5632                           
  5633                           ;EEprom.c: 28:     i2c_stop();
  5634     1753  160A  118A  2609  160A  118A  	fcall	_i2c_stop
  5635     1758                     l436:
  5636     1758  0008               	return
  5637     1759                     __end_of_ext_eeprom_24C02_byte_write:
  5638                           
  5639                           	psect	text14
  5640     1683                     __ptext14:	
  5641 ;; *************** function ___bmul *****************
  5642 ;; Defined at:
  5643 ;;		line 4 in file "C:\Program Files\Microchip\xc8\v2.40\pic\sources\c90\common\Umul8.c"
  5644 ;; Parameters:    Size  Location     Type
  5645 ;;  multiplier      1    wreg     unsigned char 
  5646 ;;  multiplicand    1    3[COMMON] unsigned char 
  5647 ;; Auto vars:     Size  Location     Type
  5648 ;;  multiplier      1    1[BANK0 ] unsigned char 
  5649 ;;  product         1    0[BANK0 ] unsigned char 
  5650 ;; Return value:  Size  Location     Type
  5651 ;;                  1    wreg      unsigned char 
  5652 ;; Registers used:
  5653 ;;		wreg, status,2, status,0
  5654 ;; Tracked objects:
  5655 ;;		On entry : 0/0
  5656 ;;		On exit  : 0/0
  5657 ;;		Unchanged: 0/0
  5658 ;; Data sizes:     COMMON   BANK0   BANK1   BANK3   BANK2
  5659 ;;      Params:         1       0       0       0       0
  5660 ;;      Locals:         0       2       0       0       0
  5661 ;;      Temps:          1       0       0       0       0
  5662 ;;      Totals:         2       2       0       0       0
  5663 ;;Total ram usage:        4 bytes
  5664 ;; Hardware stack levels used: 1
  5665 ;; Hardware stack levels required when called: 1
  5666 ;; This function calls:
  5667 ;;		Nothing
  5668 ;; This function is called by:
  5669 ;;		_log_car_event
  5670 ;;		_view_log
  5671 ;; This function uses a non-reentrant model
  5672 ;;
  5673                           
  5674     1683                     ___bmul:	
  5675                           ;psect for function ___bmul
  5676                           
  5677                           
  5678                           ;incstack = 0
  5679                           ; Regs used in ___bmul: [wreg+status,2+status,0]
  5680                           ;___bmul@multiplier stored from wreg
  5681     1683  1283               	bcf	3,5	;RP0=0, select bank0
  5682     1684  1303               	bcf	3,6	;RP1=0, select bank0
  5683     1685  00A1               	movwf	___bmul@multiplier
  5684     1686                     l3497:
  5685     1686  01A0               	clrf	___bmul@product
  5686     1687                     l3499:
  5687     1687  1C21               	btfss	___bmul@multiplier,0
  5688     1688  2E8A               	goto	u2931
  5689     1689  2E8B               	goto	u2930
  5690     168A                     u2931:
  5691     168A  2E8F               	goto	l3503
  5692     168B                     u2930:
  5693     168B                     l3501:
  5694     168B  0873               	movf	___bmul@multiplicand,w
  5695     168C  00F4               	movwf	??___bmul
  5696     168D  0874               	movf	??___bmul,w
  5697     168E  07A0               	addwf	___bmul@product,f
  5698     168F                     l3503:
  5699     168F  1003               	clrc
  5700     1690  0DF3               	rlf	___bmul@multiplicand,f
  5701     1691                     l3505:
  5702     1691  1003               	clrc
  5703     1692  0CA1               	rrf	___bmul@multiplier,f
  5704     1693  0821               	movf	___bmul@multiplier,w
  5705     1694  1D03               	btfss	3,2
  5706     1695  2E97               	goto	u2941
  5707     1696  2E98               	goto	u2940
  5708     1697                     u2941:
  5709     1697  2E87               	goto	l3499
  5710     1698                     u2940:
  5711     1698                     l3507:
  5712     1698  0820               	movf	___bmul@product,w
  5713     1699                     l626:
  5714     1699  0008               	return
  5715     169A                     __end_of___bmul:
  5716                           
  5717                           	psect	text15
  5718     17A8                     __ptext15:	
  5719 ;; *************** function _init_config *****************
  5720 ;; Defined at:
  5721 ;;		line 13 in file "main.c"
  5722 ;; Parameters:    Size  Location     Type
  5723 ;;		None
  5724 ;; Auto vars:     Size  Location     Type
  5725 ;;		None
  5726 ;; Return value:  Size  Location     Type
  5727 ;;                  1    wreg      void 
  5728 ;; Registers used:
  5729 ;;		wreg, status,2, status,0, pclath, cstack
  5730 ;; Tracked objects:
  5731 ;;		On entry : 0/0
  5732 ;;		On exit  : 0/0
  5733 ;;		Unchanged: 0/0
  5734 ;; Data sizes:     COMMON   BANK0   BANK1   BANK3   BANK2
  5735 ;;      Params:         0       0       0       0       0
  5736 ;;      Locals:         0       0       0       0       0
  5737 ;;      Temps:          0       0       0       0       0
  5738 ;;      Totals:         0       0       0       0       0
  5739 ;;Total ram usage:        0 bytes
  5740 ;; Hardware stack levels used: 1
  5741 ;; Hardware stack levels required when called: 6
  5742 ;; This function calls:
  5743 ;;		_init_adc
  5744 ;;		_init_clcd
  5745 ;;		_init_digital_keypad
  5746 ;;		_init_ds1307
  5747 ;;		_init_i2c
  5748 ;;		_init_timer2
  5749 ;; This function is called by:
  5750 ;;		_main
  5751 ;; This function uses a non-reentrant model
  5752 ;;
  5753                           
  5754     17A8                     _init_config:	
  5755                           ;psect for function _init_config
  5756                           
  5757     17A8                     l3739:	
  5758                           ;incstack = 0
  5759                           ; Regs used in _init_config: [wreg+status,2+status,0+pclath+cstack]
  5760                           
  5761                           
  5762                           ;main.c: 16:     init_config();
  5763     17A8  160A  118A  261D  160A  118A  	fcall	_init_clcd
  5764                           
  5765                           ;main.c: 17:     unsigned char control_flag = 0x01,reset_flag;
  5766     17AD  160A  118A  25EB  160A  118A  	fcall	_init_digital_keypad
  5767     17B2                     l3741:
  5768                           
  5769                           ;main.c: 18:     unsigned char speed=0;
  5770     17B2  160A  118A  25F1  160A  118A  	fcall	_init_adc
  5771     17B7                     l3743:
  5772                           
  5773                           ;main.c: 19:     unsigned char key;
  5774     17B7  3000               	movlw	0
  5775     17B8  1283               	bcf	3,5	;RP0=0, select bank0
  5776     17B9  1303               	bcf	3,6	;RP1=0, select bank0
  5777     17BA  00B0               	movwf	init_i2c@baud+3
  5778     17BB  3001               	movlw	1
  5779     17BC  00AF               	movwf	init_i2c@baud+2
  5780     17BD  3086               	movlw	134
  5781     17BE  00AE               	movwf	init_i2c@baud+1
  5782     17BF  30A0               	movlw	160
  5783     17C0  00AD               	movwf	init_i2c@baud
  5784     17C1  120A  158A  20D5  160A  118A  	fcall	_init_i2c
  5785     17C6                     l3745:
  5786                           
  5787                           ;main.c: 20:     char event[3] = "ON";
  5788     17C6  120A  118A  27EB  160A  118A  	fcall	_init_ds1307
  5789     17CB                     l3747:
  5790                           
  5791                           ;main.c: 21:     char *gear[]= {"GN","GR","G1","G2","G3","G4"};
  5792     17CB  120A  158A  2000  160A  118A  	fcall	_init_timer2
  5793     17D0                     l3749:
  5794                           
  5795                           ;main.c: 23:     unsigned char menu_pos;
  5796     17D0  178B               	bsf	11,7	;volatile
  5797     17D1                     l3751:
  5798                           
  5799                           ;main.c: 24: 
  5800     17D1  170B               	bsf	11,6	;volatile
  5801     17D2                     l55:
  5802     17D2  0008               	return
  5803     17D3                     __end_of_init_config:
  5804                           
  5805                           	psect	text16
  5806     0800                     __ptext16:	
  5807 ;; *************** function _init_timer2 *****************
  5808 ;; Defined at:
  5809 ;;		line 17 in file "timers.c"
  5810 ;; Parameters:    Size  Location     Type
  5811 ;;		None
  5812 ;; Auto vars:     Size  Location     Type
  5813 ;;		None
  5814 ;; Return value:  Size  Location     Type
  5815 ;;                  1    wreg      void 
  5816 ;; Registers used:
  5817 ;;		wreg
  5818 ;; Tracked objects:
  5819 ;;		On entry : 0/0
  5820 ;;		On exit  : 0/0
  5821 ;;		Unchanged: 0/0
  5822 ;; Data sizes:     COMMON   BANK0   BANK1   BANK3   BANK2
  5823 ;;      Params:         0       0       0       0       0
  5824 ;;      Locals:         0       0       0       0       0
  5825 ;;      Temps:          0       0       0       0       0
  5826 ;;      Totals:         0       0       0       0       0
  5827 ;;Total ram usage:        0 bytes
  5828 ;; Hardware stack levels used: 1
  5829 ;; Hardware stack levels required when called: 1
  5830 ;; This function calls:
  5831 ;;		Nothing
  5832 ;; This function is called by:
  5833 ;;		_init_config
  5834 ;; This function uses a non-reentrant model
  5835 ;;
  5836                           
  5837     0800                     _init_timer2:	
  5838                           ;psect for function _init_timer2
  5839                           
  5840     0800                     l3559:	
  5841                           ;incstack = 0
  5842                           ; Regs used in _init_timer2: [wreg]
  5843                           
  5844                           
  5845                           ;timers.c: 20:     T2CKPS0 = 1;
  5846     0800  1283               	bcf	3,5	;RP0=0, select bank0
  5847     0801  1303               	bcf	3,6	;RP1=0, select bank0
  5848     0802  1412               	bsf	18,0	;volatile
  5849                           
  5850                           ;timers.c: 21:     T2CKPS1 = 1;
  5851     0803  1492               	bsf	18,1	;volatile
  5852     0804                     l3561:
  5853                           
  5854                           ;timers.c: 24:     PR2 = 250;
  5855     0804  30FA               	movlw	250
  5856     0805  1683               	bsf	3,5	;RP0=1, select bank1
  5857     0806  1303               	bcf	3,6	;RP1=0, select bank1
  5858     0807  0092               	movwf	18	;volatile
  5859     0808                     l3563:
  5860                           
  5861                           ;timers.c: 27:     TMR2IE = 1;
  5862     0808  148C               	bsf	12,1	;volatile
  5863     0809                     l3565:
  5864                           
  5865                           ;timers.c: 30:     TMR2ON = 0;
  5866     0809  1283               	bcf	3,5	;RP0=0, select bank0
  5867     080A  1303               	bcf	3,6	;RP1=0, select bank0
  5868     080B  1112               	bcf	18,2	;volatile
  5869     080C                     l466:
  5870     080C  0008               	return
  5871     080D                     __end_of_init_timer2:
  5872                           
  5873                           	psect	text17
  5874     08D5                     __ptext17:	
  5875 ;; *************** function _init_i2c *****************
  5876 ;; Defined at:
  5877 ;;		line 4 in file "i2c.c"
  5878 ;; Parameters:    Size  Location     Type
  5879 ;;  baud            4   13[BANK0 ] unsigned long 
  5880 ;; Auto vars:     Size  Location     Type
  5881 ;;		None
  5882 ;; Return value:  Size  Location     Type
  5883 ;;                  1    wreg      void 
  5884 ;; Registers used:
  5885 ;;		wreg, status,2, status,0, pclath, cstack
  5886 ;; Tracked objects:
  5887 ;;		On entry : 0/0
  5888 ;;		On exit  : 0/0
  5889 ;;		Unchanged: 0/0
  5890 ;; Data sizes:     COMMON   BANK0   BANK1   BANK3   BANK2
  5891 ;;      Params:         0       4       0       0       0
  5892 ;;      Locals:         0       0       0       0       0
  5893 ;;      Temps:          0       4       0       0       0
  5894 ;;      Totals:         0       8       0       0       0
  5895 ;;Total ram usage:        8 bytes
  5896 ;; Hardware stack levels used: 1
  5897 ;; Hardware stack levels required when called: 2
  5898 ;; This function calls:
  5899 ;;		___lldiv
  5900 ;; This function is called by:
  5901 ;;		_init_config
  5902 ;; This function uses a non-reentrant model
  5903 ;;
  5904                           
  5905     08D5                     _init_i2c:	
  5906                           ;psect for function _init_i2c
  5907                           
  5908     08D5                     l3547:	
  5909                           ;incstack = 0
  5910                           ; Regs used in _init_i2c: [wreg+status,2+status,0+pclath+cstack]
  5911                           
  5912                           
  5913                           ;i2c.c: 4: void init_i2c(unsigned long baud);i2c.c: 5: {;i2c.c: 7:     SSPM3 = 1;
  5914     08D5  1283               	bcf	3,5	;RP0=0, select bank0
  5915     08D6  1303               	bcf	3,6	;RP1=0, select bank0
  5916     08D7  1594               	bsf	20,3	;volatile
  5917     08D8                     l3549:
  5918                           
  5919                           ;i2c.c: 10:     SSPADD = (unsigned char)(20000000 / (4 * baud)) - 1;
  5920     08D8  082D               	movf	init_i2c@baud,w
  5921     08D9  00B1               	movwf	??_init_i2c
  5922     08DA  082E               	movf	init_i2c@baud+1,w
  5923     08DB  00B2               	movwf	??_init_i2c+1
  5924     08DC  082F               	movf	init_i2c@baud+2,w
  5925     08DD  00B3               	movwf	??_init_i2c+2
  5926     08DE  0830               	movf	init_i2c@baud+3,w
  5927     08DF  00B4               	movwf	??_init_i2c+3
  5928     08E0  3002               	movlw	2
  5929     08E1                     u3025:
  5930     08E1  1003               	clrc
  5931     08E2  0DB1               	rlf	??_init_i2c,f
  5932     08E3  0DB2               	rlf	??_init_i2c+1,f
  5933     08E4  0DB3               	rlf	??_init_i2c+2,f
  5934     08E5  0DB4               	rlf	??_init_i2c+3,f
  5935     08E6                     u3020:
  5936     08E6  3EFF               	addlw	-1
  5937     08E7  1D03               	skipz
  5938     08E8  28E1               	goto	u3025
  5939     08E9  0834               	movf	??_init_i2c+3,w
  5940     08EA  00A3               	movwf	___lldiv@divisor+3
  5941     08EB  0833               	movf	??_init_i2c+2,w
  5942     08EC  00A2               	movwf	___lldiv@divisor+2
  5943     08ED  0832               	movf	??_init_i2c+1,w
  5944     08EE  00A1               	movwf	___lldiv@divisor+1
  5945     08EF  0831               	movf	??_init_i2c,w
  5946     08F0  00A0               	movwf	___lldiv@divisor
  5947     08F1  3001               	movlw	1
  5948     08F2  00A7               	movwf	___lldiv@dividend+3
  5949     08F3  3031               	movlw	49
  5950     08F4  00A6               	movwf	___lldiv@dividend+2
  5951     08F5  302D               	movlw	45
  5952     08F6  00A5               	movwf	___lldiv@dividend+1
  5953     08F7  3000               	movlw	0
  5954     08F8  00A4               	movwf	___lldiv@dividend
  5955     08F9  120A  158A  2464  120A  158A  	fcall	___lldiv
  5956     08FE  1283               	bcf	3,5	;RP0=0, select bank0
  5957     08FF  1303               	bcf	3,6	;RP1=0, select bank0
  5958     0900  0820               	movf	?___lldiv,w
  5959     0901  3EFF               	addlw	255
  5960     0902  1683               	bsf	3,5	;RP0=1, select bank1
  5961     0903  1303               	bcf	3,6	;RP1=0, select bank1
  5962     0904  0093               	movwf	19	;volatile
  5963     0905                     l3551:
  5964                           
  5965                           ;i2c.c: 13:     SSPEN = 1;
  5966     0905  1283               	bcf	3,5	;RP0=0, select bank0
  5967     0906  1303               	bcf	3,6	;RP1=0, select bank0
  5968     0907  1694               	bsf	20,5	;volatile
  5969     0908                     l158:
  5970     0908  0008               	return
  5971     0909                     __end_of_init_i2c:
  5972                           
  5973                           	psect	text18
  5974     0C64                     __ptext18:	
  5975 ;; *************** function ___lldiv *****************
  5976 ;; Defined at:
  5977 ;;		line 5 in file "C:\Program Files\Microchip\xc8\v2.40\pic\sources\c90\common\__lldiv.c"
  5978 ;; Parameters:    Size  Location     Type
  5979 ;;  divisor         4    0[BANK0 ] unsigned long 
  5980 ;;  dividend        4    4[BANK0 ] unsigned long 
  5981 ;; Auto vars:     Size  Location     Type
  5982 ;;  quotient        4    8[BANK0 ] unsigned long 
  5983 ;;  counter         1   12[BANK0 ] unsigned char 
  5984 ;; Return value:  Size  Location     Type
  5985 ;;                  4    0[BANK0 ] unsigned long 
  5986 ;; Registers used:
  5987 ;;		wreg, status,2, status,0
  5988 ;; Tracked objects:
  5989 ;;		On entry : 0/0
  5990 ;;		On exit  : 0/0
  5991 ;;		Unchanged: 0/0
  5992 ;; Data sizes:     COMMON   BANK0   BANK1   BANK3   BANK2
  5993 ;;      Params:         0       8       0       0       0
  5994 ;;      Locals:         0       5       0       0       0
  5995 ;;      Temps:          1       0       0       0       0
  5996 ;;      Totals:         1      13       0       0       0
  5997 ;;Total ram usage:       14 bytes
  5998 ;; Hardware stack levels used: 1
  5999 ;; Hardware stack levels required when called: 1
  6000 ;; This function calls:
  6001 ;;		Nothing
  6002 ;; This function is called by:
  6003 ;;		_init_i2c
  6004 ;; This function uses a non-reentrant model
  6005 ;;
  6006                           
  6007     0C64                     ___lldiv:	
  6008                           ;psect for function ___lldiv
  6009                           
  6010     0C64                     l3511:	
  6011                           ;incstack = 0
  6012                           ; Regs used in ___lldiv: [wreg+status,2+status,0]
  6013                           
  6014     0C64  3000               	movlw	0
  6015     0C65  1283               	bcf	3,5	;RP0=0, select bank0
  6016     0C66  1303               	bcf	3,6	;RP1=0, select bank0
  6017     0C67  00AB               	movwf	___lldiv@quotient+3
  6018     0C68  3000               	movlw	0
  6019     0C69  00AA               	movwf	___lldiv@quotient+2
  6020     0C6A  3000               	movlw	0
  6021     0C6B  00A9               	movwf	___lldiv@quotient+1
  6022     0C6C  3000               	movlw	0
  6023     0C6D  00A8               	movwf	___lldiv@quotient
  6024     0C6E  0823               	movf	___lldiv@divisor+3,w
  6025     0C6F  0422               	iorwf	___lldiv@divisor+2,w
  6026     0C70  0421               	iorwf	___lldiv@divisor+1,w
  6027     0C71  0420               	iorwf	___lldiv@divisor,w
  6028     0C72  1903               	skipnz
  6029     0C73  2C75               	goto	u2951
  6030     0C74  2C76               	goto	u2950
  6031     0C75                     u2951:
  6032     0C75  2CC3               	goto	l3531
  6033     0C76                     u2950:
  6034     0C76                     l3513:
  6035     0C76  01AC               	clrf	___lldiv@counter
  6036     0C77  0AAC               	incf	___lldiv@counter,f
  6037     0C78  2C86               	goto	l3517
  6038     0C79                     l3515:
  6039     0C79  3001               	movlw	1
  6040     0C7A  00F3               	movwf	??___lldiv
  6041     0C7B                     u2965:
  6042     0C7B  1003               	clrc
  6043     0C7C  0DA0               	rlf	___lldiv@divisor,f
  6044     0C7D  0DA1               	rlf	___lldiv@divisor+1,f
  6045     0C7E  0DA2               	rlf	___lldiv@divisor+2,f
  6046     0C7F  0DA3               	rlf	___lldiv@divisor+3,f
  6047     0C80  0BF3               	decfsz	??___lldiv,f
  6048     0C81  2C7B               	goto	u2965
  6049     0C82  3001               	movlw	1
  6050     0C83  00F3               	movwf	??___lldiv
  6051     0C84  0873               	movf	??___lldiv,w
  6052     0C85  07AC               	addwf	___lldiv@counter,f
  6053     0C86                     l3517:
  6054     0C86  1FA3               	btfss	___lldiv@divisor+3,7
  6055     0C87  2C89               	goto	u2971
  6056     0C88  2C8A               	goto	u2970
  6057     0C89                     u2971:
  6058     0C89  2C79               	goto	l3515
  6059     0C8A                     u2970:
  6060     0C8A                     l3519:
  6061     0C8A  3001               	movlw	1
  6062     0C8B  00F3               	movwf	??___lldiv
  6063     0C8C                     u2985:
  6064     0C8C  1003               	clrc
  6065     0C8D  0DA8               	rlf	___lldiv@quotient,f
  6066     0C8E  0DA9               	rlf	___lldiv@quotient+1,f
  6067     0C8F  0DAA               	rlf	___lldiv@quotient+2,f
  6068     0C90  0DAB               	rlf	___lldiv@quotient+3,f
  6069     0C91  0BF3               	decfsz	??___lldiv,f
  6070     0C92  2C8C               	goto	u2985
  6071     0C93                     l3521:
  6072     0C93  0823               	movf	___lldiv@divisor+3,w
  6073     0C94  0227               	subwf	___lldiv@dividend+3,w
  6074     0C95  1D03               	skipz
  6075     0C96  2CA1               	goto	u2995
  6076     0C97  0822               	movf	___lldiv@divisor+2,w
  6077     0C98  0226               	subwf	___lldiv@dividend+2,w
  6078     0C99  1D03               	skipz
  6079     0C9A  2CA1               	goto	u2995
  6080     0C9B  0821               	movf	___lldiv@divisor+1,w
  6081     0C9C  0225               	subwf	___lldiv@dividend+1,w
  6082     0C9D  1D03               	skipz
  6083     0C9E  2CA1               	goto	u2995
  6084     0C9F  0820               	movf	___lldiv@divisor,w
  6085     0CA0  0224               	subwf	___lldiv@dividend,w
  6086     0CA1                     u2995:
  6087     0CA1  1C03               	skipc
  6088     0CA2  2CA4               	goto	u2991
  6089     0CA3  2CA5               	goto	u2990
  6090     0CA4                     u2991:
  6091     0CA4  2CB4               	goto	l3527
  6092     0CA5                     u2990:
  6093     0CA5                     l3523:
  6094     0CA5  0820               	movf	___lldiv@divisor,w
  6095     0CA6  02A4               	subwf	___lldiv@dividend,f
  6096     0CA7  0821               	movf	___lldiv@divisor+1,w
  6097     0CA8  1C03               	skipc
  6098     0CA9  0F21               	incfsz	___lldiv@divisor+1,w
  6099     0CAA  02A5               	subwf	___lldiv@dividend+1,f
  6100     0CAB  0822               	movf	___lldiv@divisor+2,w
  6101     0CAC  1C03               	skipc
  6102     0CAD  0F22               	incfsz	___lldiv@divisor+2,w
  6103     0CAE  02A6               	subwf	___lldiv@dividend+2,f
  6104     0CAF  0823               	movf	___lldiv@divisor+3,w
  6105     0CB0  1C03               	skipc
  6106     0CB1  0F23               	incfsz	___lldiv@divisor+3,w
  6107     0CB2  02A7               	subwf	___lldiv@dividend+3,f
  6108     0CB3                     l3525:
  6109     0CB3  1428               	bsf	___lldiv@quotient,0
  6110     0CB4                     l3527:
  6111     0CB4  3001               	movlw	1
  6112     0CB5                     u3005:
  6113     0CB5  1003               	clrc
  6114     0CB6  0CA3               	rrf	___lldiv@divisor+3,f
  6115     0CB7  0CA2               	rrf	___lldiv@divisor+2,f
  6116     0CB8  0CA1               	rrf	___lldiv@divisor+1,f
  6117     0CB9  0CA0               	rrf	___lldiv@divisor,f
  6118     0CBA  3EFF               	addlw	-1
  6119     0CBB  1D03               	skipz
  6120     0CBC  2CB5               	goto	u3005
  6121     0CBD                     l3529:
  6122     0CBD  3001               	movlw	1
  6123     0CBE  02AC               	subwf	___lldiv@counter,f
  6124     0CBF  1D03               	btfss	3,2
  6125     0CC0  2CC2               	goto	u3011
  6126     0CC1  2CC3               	goto	u3010
  6127     0CC2                     u3011:
  6128     0CC2  2C8A               	goto	l3519
  6129     0CC3                     u3010:
  6130     0CC3                     l3531:
  6131     0CC3  082B               	movf	___lldiv@quotient+3,w
  6132     0CC4  00A3               	movwf	?___lldiv+3
  6133     0CC5  082A               	movf	___lldiv@quotient+2,w
  6134     0CC6  00A2               	movwf	?___lldiv+2
  6135     0CC7  0829               	movf	___lldiv@quotient+1,w
  6136     0CC8  00A1               	movwf	?___lldiv+1
  6137     0CC9  0828               	movf	___lldiv@quotient,w
  6138     0CCA  00A0               	movwf	?___lldiv
  6139     0CCB                     l636:
  6140     0CCB  0008               	return
  6141     0CCC                     __end_of___lldiv:
  6142                           
  6143                           	psect	text19
  6144     07EB                     __ptext19:	
  6145 ;; *************** function _init_ds1307 *****************
  6146 ;; Defined at:
  6147 ;;		line 5 in file "ds1307.c"
  6148 ;; Parameters:    Size  Location     Type
  6149 ;;		None
  6150 ;; Auto vars:     Size  Location     Type
  6151 ;;  dummy           1    4[BANK0 ] unsigned char 
  6152 ;; Return value:  Size  Location     Type
  6153 ;;                  1    wreg      void 
  6154 ;; Registers used:
  6155 ;;		wreg, status,2, status,0, pclath, cstack
  6156 ;; Tracked objects:
  6157 ;;		On entry : 0/0
  6158 ;;		On exit  : 0/0
  6159 ;;		Unchanged: 0/0
  6160 ;; Data sizes:     COMMON   BANK0   BANK1   BANK3   BANK2
  6161 ;;      Params:         0       0       0       0       0
  6162 ;;      Locals:         0       1       0       0       0
  6163 ;;      Temps:          0       0       0       0       0
  6164 ;;      Totals:         0       1       0       0       0
  6165 ;;Total ram usage:        1 bytes
  6166 ;; Hardware stack levels used: 1
  6167 ;; Hardware stack levels required when called: 5
  6168 ;; This function calls:
  6169 ;;		_read_ds1307
  6170 ;;		_write_ds1307
  6171 ;; This function is called by:
  6172 ;;		_init_config
  6173 ;; This function uses a non-reentrant model
  6174 ;;
  6175                           
  6176     07EB                     _init_ds1307:	
  6177                           ;psect for function _init_ds1307
  6178                           
  6179     07EB                     l3553:	
  6180                           ;incstack = 0
  6181                           ; Regs used in _init_ds1307: [wreg+status,2+status,0+pclath+cstack]
  6182                           
  6183                           
  6184                           ;ds1307.c: 7:     unsigned char dummy;;ds1307.c: 9:     dummy = read_ds1307(0x00);
  6185     07EB  3000               	movlw	0
  6186     07EC  120A  158A  206F  120A  118A  	fcall	_read_ds1307
  6187     07F1  1283               	bcf	3,5	;RP0=0, select bank0
  6188     07F2  1303               	bcf	3,6	;RP1=0, select bank0
  6189     07F3  00A4               	movwf	init_ds1307@dummy
  6190     07F4                     l3555:
  6191                           
  6192                           ;ds1307.c: 10:     dummy = dummy & 0x7F;
  6193     07F4  0824               	movf	init_ds1307@dummy,w
  6194     07F5  397F               	andlw	127
  6195     07F6  00A4               	movwf	init_ds1307@dummy
  6196     07F7                     l3557:
  6197                           
  6198                           ;ds1307.c: 11:     write_ds1307(0x00, dummy);
  6199     07F7  0824               	movf	init_ds1307@dummy,w
  6200     07F8  00A2               	movwf	write_ds1307@data
  6201     07F9  3000               	movlw	0
  6202     07FA  160A  118A  2711  120A  118A  	fcall	_write_ds1307
  6203     07FF                     l123:
  6204     07FF  0008               	return
  6205     0800                     __end_of_init_ds1307:
  6206                           
  6207                           	psect	text20
  6208     1711                     __ptext20:	
  6209 ;; *************** function _write_ds1307 *****************
  6210 ;; Defined at:
  6211 ;;		line 29 in file "ds1307.c"
  6212 ;; Parameters:    Size  Location     Type
  6213 ;;  addr            1    wreg     unsigned char 
  6214 ;;  data            1    2[BANK0 ] unsigned char 
  6215 ;; Auto vars:     Size  Location     Type
  6216 ;;  addr            1    3[BANK0 ] unsigned char 
  6217 ;; Return value:  Size  Location     Type
  6218 ;;                  1    wreg      void 
  6219 ;; Registers used:
  6220 ;;		wreg, status,2, status,0, pclath, cstack
  6221 ;; Tracked objects:
  6222 ;;		On entry : 0/0
  6223 ;;		On exit  : 0/0
  6224 ;;		Unchanged: 0/0
  6225 ;; Data sizes:     COMMON   BANK0   BANK1   BANK3   BANK2
  6226 ;;      Params:         0       1       0       0       0
  6227 ;;      Locals:         0       1       0       0       0
  6228 ;;      Temps:          0       0       0       0       0
  6229 ;;      Totals:         0       2       0       0       0
  6230 ;;Total ram usage:        2 bytes
  6231 ;; Hardware stack levels used: 1
  6232 ;; Hardware stack levels required when called: 3
  6233 ;; This function calls:
  6234 ;;		_i2c_start
  6235 ;;		_i2c_stop
  6236 ;;		_i2c_write
  6237 ;; This function is called by:
  6238 ;;		_init_ds1307
  6239 ;; This function uses a non-reentrant model
  6240 ;;
  6241                           
  6242     1711                     _write_ds1307:	
  6243                           ;psect for function _write_ds1307
  6244                           
  6245                           
  6246                           ;incstack = 0
  6247                           ; Regs used in _write_ds1307: [wreg+status,2+status,0+pclath+cstack]
  6248                           ;write_ds1307@addr stored from wreg
  6249     1711  1283               	bcf	3,5	;RP0=0, select bank0
  6250     1712  1303               	bcf	3,6	;RP1=0, select bank0
  6251     1713  00A3               	movwf	write_ds1307@addr
  6252     1714                     l3459:
  6253                           
  6254                           ;ds1307.c: 29: void write_ds1307(unsigned char addr, unsigned char data);ds1307.c: 30: {
      +                          ;ds1307.c: 31:     i2c_start();
  6255     1714  160A  118A  2600  160A  118A  	fcall	_i2c_start
  6256                           
  6257                           ;ds1307.c: 32:     i2c_write(0b11010000);
  6258     1719  30D0               	movlw	208
  6259     171A  160A  118A  26B3  160A  118A  	fcall	_i2c_write
  6260                           
  6261                           ;ds1307.c: 33:     i2c_write(addr);
  6262     171F  1283               	bcf	3,5	;RP0=0, select bank0
  6263     1720  1303               	bcf	3,6	;RP1=0, select bank0
  6264     1721  0823               	movf	write_ds1307@addr,w
  6265     1722  160A  118A  26B3  160A  118A  	fcall	_i2c_write
  6266                           
  6267                           ;ds1307.c: 34:     i2c_write(data);
  6268     1727  1283               	bcf	3,5	;RP0=0, select bank0
  6269     1728  1303               	bcf	3,6	;RP1=0, select bank0
  6270     1729  0822               	movf	write_ds1307@data,w
  6271     172A  160A  118A  26B3  160A  118A  	fcall	_i2c_write
  6272                           
  6273                           ;ds1307.c: 35:     i2c_stop();
  6274     172F  160A  118A  2609  160A  118A  	fcall	_i2c_stop
  6275     1734                     l129:
  6276     1734  0008               	return
  6277     1735                     __end_of_write_ds1307:
  6278                           
  6279                           	psect	text21
  6280     15EB                     __ptext21:	
  6281 ;; *************** function _init_digital_keypad *****************
  6282 ;; Defined at:
  6283 ;;		line 4 in file "digital_keypad.c"
  6284 ;; Parameters:    Size  Location     Type
  6285 ;;		None
  6286 ;; Auto vars:     Size  Location     Type
  6287 ;;		None
  6288 ;; Return value:  Size  Location     Type
  6289 ;;                  1    wreg      void 
  6290 ;; Registers used:
  6291 ;;		wreg, status,2
  6292 ;; Tracked objects:
  6293 ;;		On entry : 0/0
  6294 ;;		On exit  : 0/0
  6295 ;;		Unchanged: 0/0
  6296 ;; Data sizes:     COMMON   BANK0   BANK1   BANK3   BANK2
  6297 ;;      Params:         0       0       0       0       0
  6298 ;;      Locals:         0       0       0       0       0
  6299 ;;      Temps:          0       0       0       0       0
  6300 ;;      Totals:         0       0       0       0       0
  6301 ;;Total ram usage:        0 bytes
  6302 ;; Hardware stack levels used: 1
  6303 ;; Hardware stack levels required when called: 1
  6304 ;; This function calls:
  6305 ;;		Nothing
  6306 ;; This function is called by:
  6307 ;;		_init_config
  6308 ;; This function uses a non-reentrant model
  6309 ;;
  6310                           
  6311     15EB                     _init_digital_keypad:	
  6312                           ;psect for function _init_digital_keypad
  6313                           
  6314     15EB                     l3543:	
  6315                           ;incstack = 0
  6316                           ; Regs used in _init_digital_keypad: [wreg+status,2]
  6317                           
  6318                           
  6319                           ;digital_keypad.c: 7:     TRISB = TRISB | 0x3F;
  6320     15EB  1683               	bsf	3,5	;RP0=1, select bank1
  6321     15EC  1303               	bcf	3,6	;RP1=0, select bank1
  6322     15ED  0806               	movf	6,w	;volatile
  6323     15EE  383F               	iorlw	63
  6324     15EF  0086               	movwf	6	;volatile
  6325     15F0                     l188:
  6326     15F0  0008               	return
  6327     15F1                     __end_of_init_digital_keypad:
  6328                           
  6329                           	psect	text22
  6330     161D                     __ptext22:	
  6331 ;; *************** function _init_clcd *****************
  6332 ;; Defined at:
  6333 ;;		line 37 in file "clcd.c"
  6334 ;; Parameters:    Size  Location     Type
  6335 ;;		None
  6336 ;; Auto vars:     Size  Location     Type
  6337 ;;		None
  6338 ;; Return value:  Size  Location     Type
  6339 ;;                  1    wreg      void 
  6340 ;; Registers used:
  6341 ;;		wreg, status,2, status,0, pclath, cstack
  6342 ;; Tracked objects:
  6343 ;;		On entry : 0/0
  6344 ;;		On exit  : 0/0
  6345 ;;		Unchanged: 0/0
  6346 ;; Data sizes:     COMMON   BANK0   BANK1   BANK3   BANK2
  6347 ;;      Params:         0       0       0       0       0
  6348 ;;      Locals:         0       0       0       0       0
  6349 ;;      Temps:          0       0       0       0       0
  6350 ;;      Totals:         0       0       0       0       0
  6351 ;;Total ram usage:        0 bytes
  6352 ;; Hardware stack levels used: 1
  6353 ;; Hardware stack levels required when called: 3
  6354 ;; This function calls:
  6355 ;;		_init_display_controller
  6356 ;; This function is called by:
  6357 ;;		_init_config
  6358 ;; This function uses a non-reentrant model
  6359 ;;
  6360                           
  6361     161D                     _init_clcd:	
  6362                           ;psect for function _init_clcd
  6363                           
  6364     161D                     l3535:	
  6365                           ;incstack = 0
  6366                           ; Regs used in _init_clcd: [wreg+status,2+status,0+pclath+cstack]
  6367                           
  6368                           
  6369                           ;clcd.c: 40:     TRISD = 0x00;
  6370     161D  1683               	bsf	3,5	;RP0=1, select bank1
  6371     161E  1303               	bcf	3,6	;RP1=0, select bank1
  6372     161F  0188               	clrf	8	;volatile
  6373     1620                     l3537:
  6374                           
  6375                           ;clcd.c: 43:     TRISE2 = 0;
  6376     1620  1109               	bcf	9,2	;volatile
  6377     1621                     l3539:
  6378                           
  6379                           ;clcd.c: 44:     TRISE1 = 0;
  6380     1621  1089               	bcf	9,1	;volatile
  6381     1622                     l3541:
  6382                           
  6383                           ;clcd.c: 46:     init_display_controller();
  6384     1622  120A  158A  239D  160A  118A  	fcall	_init_display_controller
  6385     1627                     l221:
  6386     1627  0008               	return
  6387     1628                     __end_of_init_clcd:
  6388                           
  6389                           	psect	text23
  6390     0B9D                     __ptext23:	
  6391 ;; *************** function _init_display_controller *****************
  6392 ;; Defined at:
  6393 ;;		line 16 in file "clcd.c"
  6394 ;; Parameters:    Size  Location     Type
  6395 ;;		None
  6396 ;; Auto vars:     Size  Location     Type
  6397 ;;		None
  6398 ;; Return value:  Size  Location     Type
  6399 ;;                  1    wreg      void 
  6400 ;; Registers used:
  6401 ;;		wreg, status,2, status,0, pclath, cstack
  6402 ;; Tracked objects:
  6403 ;;		On entry : 0/0
  6404 ;;		On exit  : 0/0
  6405 ;;		Unchanged: 0/0
  6406 ;; Data sizes:     COMMON   BANK0   BANK1   BANK3   BANK2
  6407 ;;      Params:         0       0       0       0       0
  6408 ;;      Locals:         0       0       0       0       0
  6409 ;;      Temps:          0       2       0       0       0
  6410 ;;      Totals:         0       2       0       0       0
  6411 ;;Total ram usage:        2 bytes
  6412 ;; Hardware stack levels used: 1
  6413 ;; Hardware stack levels required when called: 2
  6414 ;; This function calls:
  6415 ;;		_clcd_write
  6416 ;; This function is called by:
  6417 ;;		_init_clcd
  6418 ;; This function uses a non-reentrant model
  6419 ;;
  6420                           
  6421     0B9D                     _init_display_controller:	
  6422                           ;psect for function _init_display_controller
  6423                           
  6424     0B9D                     l3461:	
  6425                           ;incstack = 0
  6426                           ; Regs used in _init_display_controller: [wreg+status,2+status,0+pclath+cstack]
  6427                           
  6428                           
  6429                           ;clcd.c: 19:     _delay((unsigned long)((30)*(20000000/4000.0)));
  6430     0B9D  30C3               	movlw	195
  6431     0B9E  1283               	bcf	3,5	;RP0=0, select bank0
  6432     0B9F  1303               	bcf	3,6	;RP1=0, select bank0
  6433     0BA0  00A2               	movwf	??_init_display_controller+1
  6434     0BA1  30CC               	movlw	204
  6435     0BA2  00A1               	movwf	??_init_display_controller
  6436     0BA3                     u4287:
  6437     0BA3  0BA1               	decfsz	??_init_display_controller,f
  6438     0BA4  2BA3               	goto	u4287
  6439     0BA5  0BA2               	decfsz	??_init_display_controller+1,f
  6440     0BA6  2BA3               	goto	u4287
  6441     0BA7  0000               	nop
  6442     0BA8                     l3463:
  6443                           
  6444                           ;clcd.c: 22:     clcd_write(0x33, 0);
  6445     0BA8  01F3               	clrf	clcd_write@mode
  6446     0BA9  3033               	movlw	51
  6447     0BAA  160A  118A  26EF  120A  158A  	fcall	_clcd_write
  6448     0BAF                     l3465:
  6449                           
  6450                           ;clcd.c: 23:     _delay((unsigned long)((4100)*(20000000/4000000.0)));
  6451     0BAF  301B               	movlw	27
  6452     0BB0  1283               	bcf	3,5	;RP0=0, select bank0
  6453     0BB1  1303               	bcf	3,6	;RP1=0, select bank0
  6454     0BB2  00A2               	movwf	??_init_display_controller+1
  6455     0BB3  309D               	movlw	157
  6456     0BB4  00A1               	movwf	??_init_display_controller
  6457     0BB5                     u4297:
  6458     0BB5  0BA1               	decfsz	??_init_display_controller,f
  6459     0BB6  2BB5               	goto	u4297
  6460     0BB7  0BA2               	decfsz	??_init_display_controller+1,f
  6461     0BB8  2BB5               	goto	u4297
  6462     0BB9  2BBA               	nop2
  6463                           
  6464                           ;clcd.c: 24:     clcd_write(0x33, 0);
  6465     0BBA  01F3               	clrf	clcd_write@mode
  6466     0BBB  3033               	movlw	51
  6467     0BBC  160A  118A  26EF  120A  158A  	fcall	_clcd_write
  6468     0BC1                     l3467:
  6469                           
  6470                           ;clcd.c: 25:     _delay((unsigned long)((100)*(20000000/4000000.0)));
  6471     0BC1  30A5               	movlw	165
  6472     0BC2  1283               	bcf	3,5	;RP0=0, select bank0
  6473     0BC3  1303               	bcf	3,6	;RP1=0, select bank0
  6474     0BC4  00A1               	movwf	??_init_display_controller
  6475     0BC5                     u4307:
  6476     0BC5  0BA1               	decfsz	??_init_display_controller,f
  6477     0BC6  2BC5               	goto	u4307
  6478     0BC7  2BC8               	nop2
  6479     0BC8                     l3469:
  6480                           
  6481                           ;clcd.c: 26:     clcd_write(0x33, 0);
  6482     0BC8  01F3               	clrf	clcd_write@mode
  6483     0BC9  3033               	movlw	51
  6484     0BCA  160A  118A  26EF  120A  158A  	fcall	_clcd_write
  6485     0BCF                     l3471:
  6486                           
  6487                           ;clcd.c: 27:     _delay((unsigned long)((1)*(20000000/4000000.0)));
  6488     0BCF  2BD0               	nop2	;2 cycle nop
  6489     0BD0  2BD1               	nop2	;2 cycle nop
  6490     0BD1  0000               	nop
  6491     0BD2                     l3473:
  6492                           
  6493                           ;clcd.c: 29:     clcd_write(0x38, 0);
  6494     0BD2  01F3               	clrf	clcd_write@mode
  6495     0BD3  3038               	movlw	56
  6496     0BD4  160A  118A  26EF  120A  158A  	fcall	_clcd_write
  6497     0BD9                     l3475:
  6498                           
  6499                           ;clcd.c: 30:     _delay((unsigned long)((100)*(20000000/4000000.0)));
  6500     0BD9  30A5               	movlw	165
  6501     0BDA  1283               	bcf	3,5	;RP0=0, select bank0
  6502     0BDB  1303               	bcf	3,6	;RP1=0, select bank0
  6503     0BDC  00A1               	movwf	??_init_display_controller
  6504     0BDD                     u4317:
  6505     0BDD  0BA1               	decfsz	??_init_display_controller,f
  6506     0BDE  2BDD               	goto	u4317
  6507     0BDF  2BE0               	nop2
  6508                           
  6509                           ;clcd.c: 31:     clcd_write(0x01, 0);
  6510     0BE0  01F3               	clrf	clcd_write@mode
  6511     0BE1  3001               	movlw	1
  6512     0BE2  160A  118A  26EF  120A  158A  	fcall	_clcd_write
  6513     0BE7                     l3477:
  6514                           
  6515                           ;clcd.c: 32:     _delay((unsigned long)((500)*(20000000/4000000.0)));
  6516     0BE7  3004               	movlw	4
  6517     0BE8  1283               	bcf	3,5	;RP0=0, select bank0
  6518     0BE9  1303               	bcf	3,6	;RP1=0, select bank0
  6519     0BEA  00A2               	movwf	??_init_display_controller+1
  6520     0BEB  303D               	movlw	61
  6521     0BEC  00A1               	movwf	??_init_display_controller
  6522     0BED                     u4327:
  6523     0BED  0BA1               	decfsz	??_init_display_controller,f
  6524     0BEE  2BED               	goto	u4327
  6525     0BEF  0BA2               	decfsz	??_init_display_controller+1,f
  6526     0BF0  2BED               	goto	u4327
  6527     0BF1                     l3479:
  6528                           
  6529                           ;clcd.c: 33:     clcd_write(0x0C, 0);
  6530     0BF1  01F3               	clrf	clcd_write@mode
  6531     0BF2  300C               	movlw	12
  6532     0BF3  160A  118A  26EF  120A  158A  	fcall	_clcd_write
  6533                           
  6534                           ;clcd.c: 34:     _delay((unsigned long)((100)*(20000000/4000000.0)));
  6535     0BF8  30A5               	movlw	165
  6536     0BF9  1283               	bcf	3,5	;RP0=0, select bank0
  6537     0BFA  1303               	bcf	3,6	;RP1=0, select bank0
  6538     0BFB  00A1               	movwf	??_init_display_controller
  6539     0BFC                     u4337:
  6540     0BFC  0BA1               	decfsz	??_init_display_controller,f
  6541     0BFD  2BFC               	goto	u4337
  6542     0BFE  2BFF               	nop2
  6543     0BFF                     l218:
  6544     0BFF  0008               	return
  6545     0C00                     __end_of_init_display_controller:
  6546                           
  6547                           	psect	text24
  6548     15F1                     __ptext24:	
  6549 ;; *************** function _init_adc *****************
  6550 ;; Defined at:
  6551 ;;		line 3 in file "adc.c"
  6552 ;; Parameters:    Size  Location     Type
  6553 ;;		None
  6554 ;; Auto vars:     Size  Location     Type
  6555 ;;		None
  6556 ;; Return value:  Size  Location     Type
  6557 ;;                  1    wreg      void 
  6558 ;; Registers used:
  6559 ;;		None
  6560 ;; Tracked objects:
  6561 ;;		On entry : 0/0
  6562 ;;		On exit  : 0/0
  6563 ;;		Unchanged: 0/0
  6564 ;; Data sizes:     COMMON   BANK0   BANK1   BANK3   BANK2
  6565 ;;      Params:         0       0       0       0       0
  6566 ;;      Locals:         0       0       0       0       0
  6567 ;;      Temps:          0       0       0       0       0
  6568 ;;      Totals:         0       0       0       0       0
  6569 ;;Total ram usage:        0 bytes
  6570 ;; Hardware stack levels used: 1
  6571 ;; Hardware stack levels required when called: 1
  6572 ;; This function calls:
  6573 ;;		Nothing
  6574 ;; This function is called by:
  6575 ;;		_init_config
  6576 ;; This function uses a non-reentrant model
  6577 ;;
  6578                           
  6579     15F1                     _init_adc:	
  6580                           ;psect for function _init_adc
  6581                           
  6582     15F1                     l3545:	
  6583                           ;incstack = 0
  6584                           ; Regs used in _init_adc: []
  6585                           
  6586                           
  6587                           ;adc.c: 6:     ADFM = 1;
  6588     15F1  1683               	bsf	3,5	;RP0=1, select bank1
  6589     15F2  1303               	bcf	3,6	;RP1=0, select bank1
  6590     15F3  179F               	bsf	31,7	;volatile
  6591                           
  6592                           ;adc.c: 9:     ADON = 1;
  6593     15F4  1283               	bcf	3,5	;RP0=0, select bank0
  6594     15F5  1303               	bcf	3,6	;RP1=0, select bank0
  6595     15F6  141F               	bsf	31,0	;volatile
  6596     15F7                     l245:
  6597     15F7  0008               	return
  6598     15F8                     __end_of_init_adc:
  6599                           
  6600                           	psect	text25
  6601     0C00                     __ptext25:	
  6602 ;; *************** function _display_dash_board *****************
  6603 ;; Defined at:
  6604 ;;		line 48 in file "car_black_box_def.c"
  6605 ;; Parameters:    Size  Location     Type
  6606 ;;  event           1    wreg     PTR unsigned char 
  6607 ;;		 -> main@event(3), 
  6608 ;;  speed           1   12[BANK0 ] unsigned char 
  6609 ;;  reset_flag      1   13[BANK0 ] unsigned char 
  6610 ;; Auto vars:     Size  Location     Type
  6611 ;;  event           1   16[BANK0 ] PTR unsigned char 
  6612 ;;		 -> main@event(3), 
  6613 ;; Return value:  Size  Location     Type
  6614 ;;                  1    wreg      void 
  6615 ;; Registers used:
  6616 ;;		wreg, fsr0l, fsr0h, status,2, status,0, btemp+1, pclath, cstack
  6617 ;; Tracked objects:
  6618 ;;		On entry : 0/0
  6619 ;;		On exit  : 0/0
  6620 ;;		Unchanged: 0/0
  6621 ;; Data sizes:     COMMON   BANK0   BANK1   BANK3   BANK2
  6622 ;;      Params:         0       2       0       0       0
  6623 ;;      Locals:         0       1       0       0       0
  6624 ;;      Temps:          0       2       0       0       0
  6625 ;;      Totals:         0       5       0       0       0
  6626 ;;Total ram usage:        5 bytes
  6627 ;; Hardware stack levels used: 1
  6628 ;; Hardware stack levels required when called: 7
  6629 ;; This function calls:
  6630 ;;		___awdiv
  6631 ;;		___awmod
  6632 ;;		_clcd_print
  6633 ;;		_clcd_putch
  6634 ;;		_display_time
  6635 ;; This function is called by:
  6636 ;;		_main
  6637 ;; This function uses a non-reentrant model
  6638 ;;
  6639                           
  6640     0C00                     _display_dash_board:	
  6641                           ;psect for function _display_dash_board
  6642                           
  6643                           
  6644                           ;incstack = 0
  6645                           ; Regs used in _display_dash_board: [wreg-fsr0h+status,2+status,0+btemp+1+pclath+cstack]
  6646                           ;display_dash_board@event stored from wreg
  6647     0C00  1283               	bcf	3,5	;RP0=0, select bank0
  6648     0C01  1303               	bcf	3,6	;RP1=0, select bank0
  6649     0C02  00B0               	movwf	display_dash_board@event
  6650     0C03                     l3805:
  6651                           
  6652                           ;car_black_box_def.c: 48: void display_dash_board(char event[],unsigned char speed,unsig
      +                          ned char reset_flag );car_black_box_def.c: 49: {;car_black_box_def.c: 50:     clcd_print
      +                          ("  TIME     E  SP",(0x80 + 0));
  6653     0C03  3014               	movlw	low (STR_17| (0+32768))
  6654     0C04  00A1               	movwf	clcd_print@str
  6655     0C05  3086               	movlw	high (STR_17| (0+32768))
  6656     0C06  00A2               	movwf	clcd_print@str+1
  6657     0C07  3080               	movlw	128
  6658     0C08  00A3               	movwf	clcd_print@addr
  6659     0C09  120A  158A  203C  120A  158A  	fcall	_clcd_print
  6660     0C0E                     l3807:
  6661                           
  6662                           ;car_black_box_def.c: 52:     display_time(reset_flag);
  6663     0C0E  1283               	bcf	3,5	;RP0=0, select bank0
  6664     0C0F  1303               	bcf	3,6	;RP1=0, select bank0
  6665     0C10  082D               	movf	display_dash_board@reset_flag,w
  6666     0C11  00AE               	movwf	??_display_dash_board
  6667     0C12  01AF               	clrf	??_display_dash_board+1
  6668     0C13  082E               	movf	??_display_dash_board,w
  6669     0C14  00AA               	movwf	display_time@reset_flag
  6670     0C15  082F               	movf	??_display_dash_board+1,w
  6671     0C16  00AB               	movwf	display_time@reset_flag+1
  6672     0C17  120A  158A  233E  120A  158A  	fcall	_display_time
  6673     0C1C                     l3809:
  6674                           
  6675                           ;car_black_box_def.c: 54:     clcd_print(event,(0xC0 + 11));
  6676     0C1C  1283               	bcf	3,5	;RP0=0, select bank0
  6677     0C1D  1303               	bcf	3,6	;RP1=0, select bank0
  6678     0C1E  0830               	movf	display_dash_board@event,w
  6679     0C1F  00A1               	movwf	clcd_print@str
  6680     0C20  3000               	movlw	0
  6681     0C21  00A2               	movwf	clcd_print@str+1
  6682     0C22  30CB               	movlw	203
  6683     0C23  00A3               	movwf	clcd_print@addr
  6684     0C24  120A  158A  203C  120A  158A  	fcall	_clcd_print
  6685                           
  6686                           ;car_black_box_def.c: 56:     clcd_putch(speed/10+'0',(0xC0 + 14));
  6687     0C29  30CE               	movlw	206
  6688     0C2A  1283               	bcf	3,5	;RP0=0, select bank0
  6689     0C2B  1303               	bcf	3,6	;RP1=0, select bank0
  6690     0C2C  00A8               	movwf	clcd_putch@addr
  6691     0C2D  300A               	movlw	10
  6692     0C2E  00A0               	movwf	___awdiv@divisor
  6693     0C2F  3000               	movlw	0
  6694     0C30  00A1               	movwf	___awdiv@divisor+1
  6695     0C31  082C               	movf	display_dash_board@speed,w
  6696     0C32  00AE               	movwf	??_display_dash_board
  6697     0C33  01AF               	clrf	??_display_dash_board+1
  6698     0C34  082E               	movf	??_display_dash_board,w
  6699     0C35  00A2               	movwf	___awdiv@dividend
  6700     0C36  082F               	movf	??_display_dash_board+1,w
  6701     0C37  00A3               	movwf	___awdiv@dividend+1
  6702     0C38  120A  158A  24CC  120A  158A  	fcall	___awdiv
  6703     0C3D  1283               	bcf	3,5	;RP0=0, select bank0
  6704     0C3E  1303               	bcf	3,6	;RP1=0, select bank0
  6705     0C3F  0820               	movf	?___awdiv,w
  6706     0C40  3E30               	addlw	48
  6707     0C41  160A  118A  266E  120A  158A  	fcall	_clcd_putch
  6708                           
  6709                           ;car_black_box_def.c: 57:     clcd_putch(speed%10+'0',(0xC0 + 15));
  6710     0C46  30CF               	movlw	207
  6711     0C47  1283               	bcf	3,5	;RP0=0, select bank0
  6712     0C48  1303               	bcf	3,6	;RP1=0, select bank0
  6713     0C49  00A8               	movwf	clcd_putch@addr
  6714     0C4A  300A               	movlw	10
  6715     0C4B  00A0               	movwf	___awmod@divisor
  6716     0C4C  3000               	movlw	0
  6717     0C4D  00A1               	movwf	___awmod@divisor+1
  6718     0C4E  082C               	movf	display_dash_board@speed,w
  6719     0C4F  00AE               	movwf	??_display_dash_board
  6720     0C50  01AF               	clrf	??_display_dash_board+1
  6721     0C51  082E               	movf	??_display_dash_board,w
  6722     0C52  00A2               	movwf	___awmod@dividend
  6723     0C53  082F               	movf	??_display_dash_board+1,w
  6724     0C54  00A3               	movwf	___awmod@dividend+1
  6725     0C55  120A  158A  22E3  120A  158A  	fcall	___awmod
  6726     0C5A  1283               	bcf	3,5	;RP0=0, select bank0
  6727     0C5B  1303               	bcf	3,6	;RP1=0, select bank0
  6728     0C5C  0820               	movf	?___awmod,w
  6729     0C5D  3E30               	addlw	48
  6730     0C5E  160A  118A  266E  120A  158A  	fcall	_clcd_putch
  6731     0C63                     l303:
  6732     0C63  0008               	return
  6733     0C64                     __end_of_display_dash_board:
  6734                           
  6735                           	psect	text26
  6736     0B3E                     __ptext26:	
  6737 ;; *************** function _display_time *****************
  6738 ;; Defined at:
  6739 ;;		line 30 in file "car_black_box_def.c"
  6740 ;; Parameters:    Size  Location     Type
  6741 ;;  reset_flag      2   10[BANK0 ] int 
  6742 ;; Auto vars:     Size  Location     Type
  6743 ;;		None
  6744 ;; Return value:  Size  Location     Type
  6745 ;;                  1    wreg      void 
  6746 ;; Registers used:
  6747 ;;		wreg, status,2, status,0, pclath, cstack
  6748 ;; Tracked objects:
  6749 ;;		On entry : 0/0
  6750 ;;		On exit  : 0/0
  6751 ;;		Unchanged: 0/0
  6752 ;; Data sizes:     COMMON   BANK0   BANK1   BANK3   BANK2
  6753 ;;      Params:         0       2       0       0       0
  6754 ;;      Locals:         0       0       0       0       0
  6755 ;;      Temps:          0       0       0       0       0
  6756 ;;      Totals:         0       2       0       0       0
  6757 ;;Total ram usage:        2 bytes
  6758 ;; Hardware stack levels used: 1
  6759 ;; Hardware stack levels required when called: 6
  6760 ;; This function calls:
  6761 ;;		_clcd_putch
  6762 ;;		_get_time
  6763 ;; This function is called by:
  6764 ;;		_display_dash_board
  6765 ;; This function uses a non-reentrant model
  6766 ;;
  6767                           
  6768     0B3E                     _display_time:	
  6769                           ;psect for function _display_time
  6770                           
  6771     0B3E                     l3579:	
  6772                           ;incstack = 0
  6773                           ; Regs used in _display_time: [wreg+status,2+status,0+pclath+cstack]
  6774                           
  6775                           
  6776                           ;car_black_box_def.c: 30: void display_time(reset_flag);car_black_box_def.c: 31: {;car_b
      +                          lack_box_def.c: 32:     if(reset_flag != 0x10)
  6777     0B3E  3010               	movlw	16
  6778     0B3F  1283               	bcf	3,5	;RP0=0, select bank0
  6779     0B40  1303               	bcf	3,6	;RP1=0, select bank0
  6780     0B41  062A               	xorwf	display_time@reset_flag,w
  6781     0B42  042B               	iorwf	display_time@reset_flag+1,w
  6782     0B43  1903               	btfsc	3,2
  6783     0B44  2B46               	goto	u3041
  6784     0B45  2B47               	goto	u3040
  6785     0B46                     u3041:
  6786     0B46  2B4C               	goto	l299
  6787     0B47                     u3040:
  6788     0B47                     l3581:
  6789                           
  6790                           ;car_black_box_def.c: 33:     {;car_black_box_def.c: 34:         get_time();
  6791     0B47  120A  158A  2242  120A  158A  	fcall	_get_time
  6792     0B4C                     l299:	
  6793                           ;car_black_box_def.c: 35:     }
  6794                           
  6795                           
  6796                           ;car_black_box_def.c: 37:     clcd_putch(time[0],(0xC0 + 2));
  6797     0B4C  30C2               	movlw	194
  6798     0B4D  1283               	bcf	3,5	;RP0=0, select bank0
  6799     0B4E  1303               	bcf	3,6	;RP1=0, select bank0
  6800     0B4F  00A8               	movwf	clcd_putch@addr
  6801     0B50  0852               	movf	_time,w
  6802     0B51  160A  118A  266E  120A  158A  	fcall	_clcd_putch
  6803                           
  6804                           ;car_black_box_def.c: 38:     clcd_putch(time[1],(0xC0 + 3));
  6805     0B56  30C3               	movlw	195
  6806     0B57  1283               	bcf	3,5	;RP0=0, select bank0
  6807     0B58  1303               	bcf	3,6	;RP1=0, select bank0
  6808     0B59  00A8               	movwf	clcd_putch@addr
  6809     0B5A  0853               	movf	_time+1,w
  6810     0B5B  160A  118A  266E  120A  158A  	fcall	_clcd_putch
  6811                           
  6812                           ;car_black_box_def.c: 39:     clcd_putch(':',(0xC0 + 4));
  6813     0B60  30C4               	movlw	196
  6814     0B61  1283               	bcf	3,5	;RP0=0, select bank0
  6815     0B62  1303               	bcf	3,6	;RP1=0, select bank0
  6816     0B63  00A8               	movwf	clcd_putch@addr
  6817     0B64  303A               	movlw	58
  6818     0B65  160A  118A  266E  120A  158A  	fcall	_clcd_putch
  6819                           
  6820                           ;car_black_box_def.c: 40:     clcd_putch(time[2],(0xC0 + 5));
  6821     0B6A  30C5               	movlw	197
  6822     0B6B  1283               	bcf	3,5	;RP0=0, select bank0
  6823     0B6C  1303               	bcf	3,6	;RP1=0, select bank0
  6824     0B6D  00A8               	movwf	clcd_putch@addr
  6825     0B6E  0854               	movf	_time+2,w
  6826     0B6F  160A  118A  266E  120A  158A  	fcall	_clcd_putch
  6827                           
  6828                           ;car_black_box_def.c: 41:     clcd_putch(time[3],(0xC0 + 6));
  6829     0B74  30C6               	movlw	198
  6830     0B75  1283               	bcf	3,5	;RP0=0, select bank0
  6831     0B76  1303               	bcf	3,6	;RP1=0, select bank0
  6832     0B77  00A8               	movwf	clcd_putch@addr
  6833     0B78  0855               	movf	_time+3,w
  6834     0B79  160A  118A  266E  120A  158A  	fcall	_clcd_putch
  6835                           
  6836                           ;car_black_box_def.c: 42:     clcd_putch(':',(0xC0 + 7));
  6837     0B7E  30C7               	movlw	199
  6838     0B7F  1283               	bcf	3,5	;RP0=0, select bank0
  6839     0B80  1303               	bcf	3,6	;RP1=0, select bank0
  6840     0B81  00A8               	movwf	clcd_putch@addr
  6841     0B82  303A               	movlw	58
  6842     0B83  160A  118A  266E  120A  158A  	fcall	_clcd_putch
  6843                           
  6844                           ;car_black_box_def.c: 43:     clcd_putch(time[4],(0xC0 + 8));
  6845     0B88  30C8               	movlw	200
  6846     0B89  1283               	bcf	3,5	;RP0=0, select bank0
  6847     0B8A  1303               	bcf	3,6	;RP1=0, select bank0
  6848     0B8B  00A8               	movwf	clcd_putch@addr
  6849     0B8C  0856               	movf	_time+4,w
  6850     0B8D  160A  118A  266E  120A  158A  	fcall	_clcd_putch
  6851                           
  6852                           ;car_black_box_def.c: 44:     clcd_putch(time[5],(0xC0 + 9));
  6853     0B92  30C9               	movlw	201
  6854     0B93  1283               	bcf	3,5	;RP0=0, select bank0
  6855     0B94  1303               	bcf	3,6	;RP1=0, select bank0
  6856     0B95  00A8               	movwf	clcd_putch@addr
  6857     0B96  0857               	movf	_time+5,w
  6858     0B97  160A  118A  266E  120A  158A  	fcall	_clcd_putch
  6859     0B9C                     l300:
  6860     0B9C  0008               	return
  6861     0B9D                     __end_of_display_time:
  6862                           
  6863                           	psect	text27
  6864     0A42                     __ptext27:	
  6865 ;; *************** function _get_time *****************
  6866 ;; Defined at:
  6867 ;;		line 11 in file "car_black_box_def.c"
  6868 ;; Parameters:    Size  Location     Type
  6869 ;;		None
  6870 ;; Auto vars:     Size  Location     Type
  6871 ;;		None
  6872 ;; Return value:  Size  Location     Type
  6873 ;;                  1    wreg      void 
  6874 ;; Registers used:
  6875 ;;		wreg, status,2, status,0, pclath, cstack
  6876 ;; Tracked objects:
  6877 ;;		On entry : 0/0
  6878 ;;		On exit  : 0/0
  6879 ;;		Unchanged: 0/0
  6880 ;; Data sizes:     COMMON   BANK0   BANK1   BANK3   BANK2
  6881 ;;      Params:         0       0       0       0       0
  6882 ;;      Locals:         0       0       0       0       0
  6883 ;;      Temps:          0       1       0       0       0
  6884 ;;      Totals:         0       1       0       0       0
  6885 ;;Total ram usage:        1 bytes
  6886 ;; Hardware stack levels used: 1
  6887 ;; Hardware stack levels required when called: 5
  6888 ;; This function calls:
  6889 ;;		_read_ds1307
  6890 ;; This function is called by:
  6891 ;;		_display_time
  6892 ;; This function uses a non-reentrant model
  6893 ;;
  6894                           
  6895     0A42                     _get_time:	
  6896                           ;psect for function _get_time
  6897                           
  6898     0A42                     l3481:	
  6899                           ;incstack = 0
  6900                           ; Regs used in _get_time: [wreg+status,2+status,0+pclath+cstack]
  6901                           
  6902                           
  6903                           ;car_black_box_def.c: 13:     clock_reg[0] = read_ds1307(0x02);
  6904     0A42  3002               	movlw	2
  6905     0A43  120A  158A  206F  120A  158A  	fcall	_read_ds1307
  6906     0A48  1283               	bcf	3,5	;RP0=0, select bank0
  6907     0A49  1303               	bcf	3,6	;RP1=0, select bank0
  6908     0A4A  00BF               	movwf	_clock_reg
  6909                           
  6910                           ;car_black_box_def.c: 14:     clock_reg[1] = read_ds1307(0x01);
  6911     0A4B  3001               	movlw	1
  6912     0A4C  120A  158A  206F  120A  158A  	fcall	_read_ds1307
  6913     0A51  1283               	bcf	3,5	;RP0=0, select bank0
  6914     0A52  1303               	bcf	3,6	;RP1=0, select bank0
  6915     0A53  00C0               	movwf	_clock_reg+1
  6916                           
  6917                           ;car_black_box_def.c: 15:     clock_reg[2] = read_ds1307(0x00);
  6918     0A54  3000               	movlw	0
  6919     0A55  120A  158A  206F  120A  158A  	fcall	_read_ds1307
  6920     0A5A  1283               	bcf	3,5	;RP0=0, select bank0
  6921     0A5B  1303               	bcf	3,6	;RP1=0, select bank0
  6922     0A5C  00C1               	movwf	_clock_reg+2
  6923     0A5D                     l3483:
  6924                           
  6925                           ;car_black_box_def.c: 17:     time[0] = ((clock_reg[0] >> 4) & 0x03) + '0';
  6926     0A5D  083F               	movf	_clock_reg,w
  6927     0A5E  00A4               	movwf	??_get_time
  6928     0A5F  3004               	movlw	4
  6929     0A60                     u2905:
  6930     0A60  1003               	clrc
  6931     0A61  0CA4               	rrf	??_get_time,f
  6932     0A62  3EFF               	addlw	-1
  6933     0A63  1D03               	skipz
  6934     0A64  2A60               	goto	u2905
  6935     0A65  0824               	movf	??_get_time,w
  6936     0A66  3903               	andlw	3
  6937     0A67  3E30               	addlw	48
  6938     0A68  00D2               	movwf	_time
  6939     0A69                     l3485:
  6940                           
  6941                           ;car_black_box_def.c: 18:     time[1] = (clock_reg[0] & 0x0F) + '0';
  6942     0A69  083F               	movf	_clock_reg,w
  6943     0A6A  390F               	andlw	15
  6944     0A6B  3E30               	addlw	48
  6945     0A6C  00D3               	movwf	_time+1
  6946     0A6D                     l3487:
  6947                           
  6948                           ;car_black_box_def.c: 21:     time[2] = ((clock_reg[1] >> 4) & 0x07) + '0';
  6949     0A6D  0840               	movf	_clock_reg+1,w
  6950     0A6E  00A4               	movwf	??_get_time
  6951     0A6F  3004               	movlw	4
  6952     0A70                     u2915:
  6953     0A70  1003               	clrc
  6954     0A71  0CA4               	rrf	??_get_time,f
  6955     0A72  3EFF               	addlw	-1
  6956     0A73  1D03               	skipz
  6957     0A74  2A70               	goto	u2915
  6958     0A75  0824               	movf	??_get_time,w
  6959     0A76  3907               	andlw	7
  6960     0A77  3E30               	addlw	48
  6961     0A78  00D4               	movwf	_time+2
  6962     0A79                     l3489:
  6963                           
  6964                           ;car_black_box_def.c: 22:     time[3] = (clock_reg[1] & 0x0F) + '0';
  6965     0A79  0840               	movf	_clock_reg+1,w
  6966     0A7A  390F               	andlw	15
  6967     0A7B  3E30               	addlw	48
  6968     0A7C  00D5               	movwf	_time+3
  6969     0A7D                     l3491:
  6970                           
  6971                           ;car_black_box_def.c: 25:     time[4] = ((clock_reg[2] >> 4) & 0x07) + '0';
  6972     0A7D  0841               	movf	_clock_reg+2,w
  6973     0A7E  00A4               	movwf	??_get_time
  6974     0A7F  3004               	movlw	4
  6975     0A80                     u2925:
  6976     0A80  1003               	clrc
  6977     0A81  0CA4               	rrf	??_get_time,f
  6978     0A82  3EFF               	addlw	-1
  6979     0A83  1D03               	skipz
  6980     0A84  2A80               	goto	u2925
  6981     0A85  0824               	movf	??_get_time,w
  6982     0A86  3907               	andlw	7
  6983     0A87  3E30               	addlw	48
  6984     0A88  00D6               	movwf	_time+4
  6985     0A89                     l3493:
  6986                           
  6987                           ;car_black_box_def.c: 26:     time[5] = (clock_reg[2] & 0x0F) + '0';
  6988     0A89  0841               	movf	_clock_reg+2,w
  6989     0A8A  390F               	andlw	15
  6990     0A8B  3E30               	addlw	48
  6991     0A8C  00D7               	movwf	_time+5
  6992     0A8D                     l3495:
  6993                           
  6994                           ;car_black_box_def.c: 27:     time[6] = '\0';
  6995     0A8D  01D8               	clrf	_time+6
  6996     0A8E                     l296:
  6997     0A8E  0008               	return
  6998     0A8F                     __end_of_get_time:
  6999                           
  7000                           	psect	text28
  7001     086F                     __ptext28:	
  7002 ;; *************** function _read_ds1307 *****************
  7003 ;; Defined at:
  7004 ;;		line 14 in file "ds1307.c"
  7005 ;; Parameters:    Size  Location     Type
  7006 ;;  addr            1    wreg     unsigned char 
  7007 ;; Auto vars:     Size  Location     Type
  7008 ;;  addr            1    2[BANK0 ] unsigned char 
  7009 ;;  data            1    3[BANK0 ] unsigned char 
  7010 ;; Return value:  Size  Location     Type
  7011 ;;                  1    wreg      unsigned char 
  7012 ;; Registers used:
  7013 ;;		wreg, status,2, status,0, pclath, cstack
  7014 ;; Tracked objects:
  7015 ;;		On entry : 0/0
  7016 ;;		On exit  : 0/0
  7017 ;;		Unchanged: 0/0
  7018 ;; Data sizes:     COMMON   BANK0   BANK1   BANK3   BANK2
  7019 ;;      Params:         0       0       0       0       0
  7020 ;;      Locals:         0       2       0       0       0
  7021 ;;      Temps:          0       0       0       0       0
  7022 ;;      Totals:         0       2       0       0       0
  7023 ;;Total ram usage:        2 bytes
  7024 ;; Hardware stack levels used: 1
  7025 ;; Hardware stack levels required when called: 4
  7026 ;; This function calls:
  7027 ;;		_i2c_read
  7028 ;;		_i2c_rep_start
  7029 ;;		_i2c_start
  7030 ;;		_i2c_stop
  7031 ;;		_i2c_write
  7032 ;; This function is called by:
  7033 ;;		_init_ds1307
  7034 ;;		_get_time
  7035 ;; This function uses a non-reentrant model
  7036 ;;
  7037                           
  7038     086F                     _read_ds1307:	
  7039                           ;psect for function _read_ds1307
  7040                           
  7041                           
  7042                           ;incstack = 0
  7043                           ; Regs used in _read_ds1307: [wreg+status,2+status,0+pclath+cstack]
  7044                           ;read_ds1307@addr stored from wreg
  7045     086F  1283               	bcf	3,5	;RP0=0, select bank0
  7046     0870  1303               	bcf	3,6	;RP1=0, select bank0
  7047     0871  00A2               	movwf	read_ds1307@addr
  7048     0872                     l3439:
  7049                           
  7050                           ;ds1307.c: 14: unsigned char read_ds1307(unsigned char addr);ds1307.c: 15: {;ds1307.c: 1
      +                          6:     unsigned char data;;ds1307.c: 18:     i2c_start();
  7051     0872  160A  118A  2600  120A  158A  	fcall	_i2c_start
  7052                           
  7053                           ;ds1307.c: 19:     i2c_write(0b11010000);
  7054     0877  30D0               	movlw	208
  7055     0878  160A  118A  26B3  120A  158A  	fcall	_i2c_write
  7056                           
  7057                           ;ds1307.c: 20:     i2c_write(addr);
  7058     087D  1283               	bcf	3,5	;RP0=0, select bank0
  7059     087E  1303               	bcf	3,6	;RP1=0, select bank0
  7060     087F  0822               	movf	read_ds1307@addr,w
  7061     0880  160A  118A  26B3  120A  158A  	fcall	_i2c_write
  7062                           
  7063                           ;ds1307.c: 21:     i2c_rep_start();
  7064     0885  160A  118A  2612  120A  158A  	fcall	_i2c_rep_start
  7065                           
  7066                           ;ds1307.c: 22:     i2c_write(0b11010001);
  7067     088A  30D1               	movlw	209
  7068     088B  160A  118A  26B3  120A  158A  	fcall	_i2c_write
  7069                           
  7070                           ;ds1307.c: 23:     data = i2c_read(0);
  7071     0890  3000               	movlw	0
  7072     0891  160A  118A  26CE  120A  158A  	fcall	_i2c_read
  7073     0896  1283               	bcf	3,5	;RP0=0, select bank0
  7074     0897  1303               	bcf	3,6	;RP1=0, select bank0
  7075     0898  00A3               	movwf	read_ds1307@data
  7076                           
  7077                           ;ds1307.c: 24:     i2c_stop();
  7078     0899  160A  118A  2609  120A  158A  	fcall	_i2c_stop
  7079     089E                     l3441:
  7080                           
  7081                           ;ds1307.c: 26:     return data;
  7082     089E  1283               	bcf	3,5	;RP0=0, select bank0
  7083     089F  1303               	bcf	3,6	;RP1=0, select bank0
  7084     08A0  0823               	movf	read_ds1307@data,w
  7085     08A1                     l126:
  7086     08A1  0008               	return
  7087     08A2                     __end_of_read_ds1307:
  7088                           
  7089                           	psect	text29
  7090     16B3                     __ptext29:	
  7091 ;; *************** function _i2c_write *****************
  7092 ;; Defined at:
  7093 ;;		line 65 in file "i2c.c"
  7094 ;; Parameters:    Size  Location     Type
  7095 ;;  data            1    wreg     unsigned char 
  7096 ;; Auto vars:     Size  Location     Type
  7097 ;;  data            1    5[COMMON] unsigned char 
  7098 ;; Return value:  Size  Location     Type
  7099 ;;                  2    3[COMMON] int 
  7100 ;; Registers used:
  7101 ;;		wreg, status,2, status,0, pclath, cstack
  7102 ;; Tracked objects:
  7103 ;;		On entry : 0/0
  7104 ;;		On exit  : 0/0
  7105 ;;		Unchanged: 0/0
  7106 ;; Data sizes:     COMMON   BANK0   BANK1   BANK3   BANK2
  7107 ;;      Params:         2       0       0       0       0
  7108 ;;      Locals:         1       0       0       0       0
  7109 ;;      Temps:          0       2       0       0       0
  7110 ;;      Totals:         3       2       0       0       0
  7111 ;;Total ram usage:        5 bytes
  7112 ;; Hardware stack levels used: 1
  7113 ;; Hardware stack levels required when called: 2
  7114 ;; This function calls:
  7115 ;;		_i2c_wait_for_idle
  7116 ;; This function is called by:
  7117 ;;		_read_ds1307
  7118 ;;		_write_ds1307
  7119 ;;		_ext_eeprom_24C02_read
  7120 ;;		_ext_eeprom_24C02_byte_write
  7121 ;; This function uses a non-reentrant model
  7122 ;;
  7123                           
  7124     16B3                     _i2c_write:	
  7125                           ;psect for function _i2c_write
  7126                           
  7127                           
  7128                           ;incstack = 0
  7129                           ; Regs used in _i2c_write: [wreg+status,2+status,0+pclath+cstack]
  7130                           ;i2c_write@data stored from wreg
  7131     16B3  00F5               	movwf	i2c_write@data
  7132     16B4                     l3407:
  7133                           
  7134                           ;i2c.c: 65: int i2c_write(unsigned char data);i2c.c: 66: {;i2c.c: 67:     i2c_wait_for_i
      +                          dle();
  7135     16B4  160A  118A  2628  160A  118A  	fcall	_i2c_wait_for_idle
  7136     16B9                     l3409:
  7137                           
  7138                           ;i2c.c: 68:     SSPBUF = data;
  7139     16B9  0875               	movf	i2c_write@data,w
  7140     16BA  1283               	bcf	3,5	;RP0=0, select bank0
  7141     16BB  1303               	bcf	3,6	;RP1=0, select bank0
  7142     16BC  0093               	movwf	19	;volatile
  7143     16BD                     l3411:
  7144                           
  7145                           ;i2c.c: 70:     return !ACKSTAT;
  7146     16BD  1003               	clrc
  7147     16BE  1683               	bsf	3,5	;RP0=1, select bank1
  7148     16BF  1303               	bcf	3,6	;RP1=0, select bank1
  7149     16C0  1F11               	btfss	17,6	;volatile
  7150     16C1  1403               	setc
  7151     16C2  3000               	movlw	0
  7152     16C3  1803               	skipnc
  7153     16C4  3001               	movlw	1
  7154     16C5  1283               	bcf	3,5	;RP0=0, select bank0
  7155     16C6  1303               	bcf	3,6	;RP1=0, select bank0
  7156     16C7  00A0               	movwf	??_i2c_write
  7157     16C8  01A1               	clrf	??_i2c_write+1
  7158     16C9  0820               	movf	??_i2c_write,w
  7159     16CA  00F3               	movwf	?_i2c_write
  7160     16CB  0821               	movf	??_i2c_write+1,w
  7161     16CC  00F4               	movwf	?_i2c_write+1
  7162     16CD                     l181:
  7163     16CD  0008               	return
  7164     16CE                     __end_of_i2c_write:
  7165                           
  7166                           	psect	text30
  7167     1612                     __ptext30:	
  7168 ;; *************** function _i2c_rep_start *****************
  7169 ;; Defined at:
  7170 ;;		line 28 in file "i2c.c"
  7171 ;; Parameters:    Size  Location     Type
  7172 ;;		None
  7173 ;; Auto vars:     Size  Location     Type
  7174 ;;		None
  7175 ;; Return value:  Size  Location     Type
  7176 ;;                  1    wreg      void 
  7177 ;; Registers used:
  7178 ;;		wreg, status,2, status,0, pclath, cstack
  7179 ;; Tracked objects:
  7180 ;;		On entry : 0/0
  7181 ;;		On exit  : 0/0
  7182 ;;		Unchanged: 0/0
  7183 ;; Data sizes:     COMMON   BANK0   BANK1   BANK3   BANK2
  7184 ;;      Params:         0       0       0       0       0
  7185 ;;      Locals:         0       0       0       0       0
  7186 ;;      Temps:          0       0       0       0       0
  7187 ;;      Totals:         0       0       0       0       0
  7188 ;;Total ram usage:        0 bytes
  7189 ;; Hardware stack levels used: 1
  7190 ;; Hardware stack levels required when called: 3
  7191 ;; This function calls:
  7192 ;;		_i2c_start
  7193 ;;		_i2c_stop
  7194 ;; This function is called by:
  7195 ;;		_read_ds1307
  7196 ;;		_ext_eeprom_24C02_read
  7197 ;; This function uses a non-reentrant model
  7198 ;;
  7199                           
  7200     1612                     _i2c_rep_start:	
  7201                           ;psect for function _i2c_rep_start
  7202                           
  7203     1612                     l3415:	
  7204                           ;incstack = 0
  7205                           ; Regs used in _i2c_rep_start: [wreg+status,2+status,0+pclath+cstack]
  7206                           
  7207                           
  7208                           ;i2c.c: 30:     i2c_stop();
  7209     1612  160A  118A  2609  160A  118A  	fcall	_i2c_stop
  7210                           
  7211                           ;i2c.c: 31:     i2c_start();
  7212     1617  160A  118A  2600  160A  118A  	fcall	_i2c_start
  7213     161C                     l170:
  7214     161C  0008               	return
  7215     161D                     __end_of_i2c_rep_start:
  7216                           
  7217                           	psect	text31
  7218     1609                     __ptext31:	
  7219 ;; *************** function _i2c_stop *****************
  7220 ;; Defined at:
  7221 ;;		line 35 in file "i2c.c"
  7222 ;; Parameters:    Size  Location     Type
  7223 ;;		None
  7224 ;; Auto vars:     Size  Location     Type
  7225 ;;		None
  7226 ;; Return value:  Size  Location     Type
  7227 ;;                  1    wreg      void 
  7228 ;; Registers used:
  7229 ;;		wreg, status,2, status,0, pclath, cstack
  7230 ;; Tracked objects:
  7231 ;;		On entry : 0/0
  7232 ;;		On exit  : 0/0
  7233 ;;		Unchanged: 0/0
  7234 ;; Data sizes:     COMMON   BANK0   BANK1   BANK3   BANK2
  7235 ;;      Params:         0       0       0       0       0
  7236 ;;      Locals:         0       0       0       0       0
  7237 ;;      Temps:          0       0       0       0       0
  7238 ;;      Totals:         0       0       0       0       0
  7239 ;;Total ram usage:        0 bytes
  7240 ;; Hardware stack levels used: 1
  7241 ;; Hardware stack levels required when called: 2
  7242 ;; This function calls:
  7243 ;;		_i2c_wait_for_idle
  7244 ;; This function is called by:
  7245 ;;		_read_ds1307
  7246 ;;		_write_ds1307
  7247 ;;		_i2c_rep_start
  7248 ;;		_ext_eeprom_24C02_read
  7249 ;;		_ext_eeprom_24C02_byte_write
  7250 ;; This function uses a non-reentrant model
  7251 ;;
  7252                           
  7253     1609                     _i2c_stop:	
  7254                           ;psect for function _i2c_stop
  7255                           
  7256     1609                     l3403:	
  7257                           ;incstack = 0
  7258                           ; Regs used in _i2c_stop: [wreg+status,2+status,0+pclath+cstack]
  7259                           
  7260                           
  7261                           ;i2c.c: 37:     i2c_wait_for_idle();
  7262     1609  160A  118A  2628  160A  118A  	fcall	_i2c_wait_for_idle
  7263     160E                     l3405:
  7264                           
  7265                           ;i2c.c: 38:     PEN = 1;
  7266     160E  1683               	bsf	3,5	;RP0=1, select bank1
  7267     160F  1303               	bcf	3,6	;RP1=0, select bank1
  7268     1610  1511               	bsf	17,2	;volatile
  7269     1611                     l173:
  7270     1611  0008               	return
  7271     1612                     __end_of_i2c_stop:
  7272                           
  7273                           	psect	text32
  7274     1600                     __ptext32:	
  7275 ;; *************** function _i2c_start *****************
  7276 ;; Defined at:
  7277 ;;		line 22 in file "i2c.c"
  7278 ;; Parameters:    Size  Location     Type
  7279 ;;		None
  7280 ;; Auto vars:     Size  Location     Type
  7281 ;;		None
  7282 ;; Return value:  Size  Location     Type
  7283 ;;                  1    wreg      void 
  7284 ;; Registers used:
  7285 ;;		wreg, status,2, status,0, pclath, cstack
  7286 ;; Tracked objects:
  7287 ;;		On entry : 0/0
  7288 ;;		On exit  : 0/0
  7289 ;;		Unchanged: 0/0
  7290 ;; Data sizes:     COMMON   BANK0   BANK1   BANK3   BANK2
  7291 ;;      Params:         0       0       0       0       0
  7292 ;;      Locals:         0       0       0       0       0
  7293 ;;      Temps:          0       0       0       0       0
  7294 ;;      Totals:         0       0       0       0       0
  7295 ;;Total ram usage:        0 bytes
  7296 ;; Hardware stack levels used: 1
  7297 ;; Hardware stack levels required when called: 2
  7298 ;; This function calls:
  7299 ;;		_i2c_wait_for_idle
  7300 ;; This function is called by:
  7301 ;;		_read_ds1307
  7302 ;;		_write_ds1307
  7303 ;;		_i2c_rep_start
  7304 ;;		_ext_eeprom_24C02_read
  7305 ;;		_ext_eeprom_24C02_byte_write
  7306 ;; This function uses a non-reentrant model
  7307 ;;
  7308                           
  7309     1600                     _i2c_start:	
  7310                           ;psect for function _i2c_start
  7311                           
  7312     1600                     l3399:	
  7313                           ;incstack = 0
  7314                           ; Regs used in _i2c_start: [wreg+status,2+status,0+pclath+cstack]
  7315                           
  7316                           
  7317                           ;i2c.c: 24:     i2c_wait_for_idle();
  7318     1600  160A  118A  2628  160A  118A  	fcall	_i2c_wait_for_idle
  7319     1605                     l3401:
  7320                           
  7321                           ;i2c.c: 25:     SEN = 1;
  7322     1605  1683               	bsf	3,5	;RP0=1, select bank1
  7323     1606  1303               	bcf	3,6	;RP1=0, select bank1
  7324     1607  1411               	bsf	17,0	;volatile
  7325     1608                     l167:
  7326     1608  0008               	return
  7327     1609                     __end_of_i2c_start:
  7328                           
  7329                           	psect	text33
  7330     16CE                     __ptext33:	
  7331 ;; *************** function _i2c_read *****************
  7332 ;; Defined at:
  7333 ;;		line 41 in file "i2c.c"
  7334 ;; Parameters:    Size  Location     Type
  7335 ;;  ack             1    wreg     unsigned char 
  7336 ;; Auto vars:     Size  Location     Type
  7337 ;;  ack             1    3[COMMON] unsigned char 
  7338 ;;  data            1    4[COMMON] unsigned char 
  7339 ;; Return value:  Size  Location     Type
  7340 ;;                  1    wreg      unsigned char 
  7341 ;; Registers used:
  7342 ;;		wreg, status,2, status,0, pclath, cstack
  7343 ;; Tracked objects:
  7344 ;;		On entry : 0/0
  7345 ;;		On exit  : 0/0
  7346 ;;		Unchanged: 0/0
  7347 ;; Data sizes:     COMMON   BANK0   BANK1   BANK3   BANK2
  7348 ;;      Params:         0       0       0       0       0
  7349 ;;      Locals:         2       0       0       0       0
  7350 ;;      Temps:          0       0       0       0       0
  7351 ;;      Totals:         2       0       0       0       0
  7352 ;;Total ram usage:        2 bytes
  7353 ;; Hardware stack levels used: 1
  7354 ;; Hardware stack levels required when called: 2
  7355 ;; This function calls:
  7356 ;;		_i2c_wait_for_idle
  7357 ;; This function is called by:
  7358 ;;		_read_ds1307
  7359 ;;		_ext_eeprom_24C02_read
  7360 ;; This function uses a non-reentrant model
  7361 ;;
  7362                           
  7363     16CE                     _i2c_read:	
  7364                           ;psect for function _i2c_read
  7365                           
  7366                           
  7367                           ;incstack = 0
  7368                           ; Regs used in _i2c_read: [wreg+status,2+status,0+pclath+cstack]
  7369                           ;i2c_read@ack stored from wreg
  7370     16CE  00F3               	movwf	i2c_read@ack
  7371     16CF                     l3417:
  7372                           
  7373                           ;i2c.c: 41: unsigned char i2c_read(unsigned char ack);i2c.c: 42: {;i2c.c: 43:     unsign
      +                          ed char data;;i2c.c: 45:     i2c_wait_for_idle();
  7374     16CF  160A  118A  2628  160A  118A  	fcall	_i2c_wait_for_idle
  7375     16D4                     l3419:
  7376                           
  7377                           ;i2c.c: 46:     RCEN = 1;
  7378     16D4  1683               	bsf	3,5	;RP0=1, select bank1
  7379     16D5  1303               	bcf	3,6	;RP1=0, select bank1
  7380     16D6  1591               	bsf	17,3	;volatile
  7381                           
  7382                           ;i2c.c: 48:     i2c_wait_for_idle();
  7383     16D7  160A  118A  2628  160A  118A  	fcall	_i2c_wait_for_idle
  7384     16DC                     l3421:
  7385                           
  7386                           ;i2c.c: 49:     data = SSPBUF;
  7387     16DC  1283               	bcf	3,5	;RP0=0, select bank0
  7388     16DD  1303               	bcf	3,6	;RP1=0, select bank0
  7389     16DE  0813               	movf	19,w	;volatile
  7390     16DF  00F4               	movwf	i2c_read@data
  7391     16E0                     l3423:
  7392                           
  7393                           ;i2c.c: 51:     if (ack == 1)
  7394     16E0  0373               	decf	i2c_read@ack,w
  7395     16E1  1D03               	btfss	3,2
  7396     16E2  2EE4               	goto	u2861
  7397     16E3  2EE5               	goto	u2860
  7398     16E4                     u2861:
  7399     16E4  2EE9               	goto	l176
  7400     16E5                     u2860:
  7401     16E5                     l3425:
  7402                           
  7403                           ;i2c.c: 52:     {;i2c.c: 53:         ACKDT = 1;
  7404     16E5  1683               	bsf	3,5	;RP0=1, select bank1
  7405     16E6  1303               	bcf	3,6	;RP1=0, select bank1
  7406     16E7  1691               	bsf	17,5	;volatile
  7407                           
  7408                           ;i2c.c: 54:     }
  7409     16E8  2EEC               	goto	l177
  7410     16E9                     l176:	
  7411                           ;i2c.c: 55:     else
  7412                           
  7413                           
  7414                           ;i2c.c: 56:     {;i2c.c: 57:         ACKDT = 0;
  7415     16E9  1683               	bsf	3,5	;RP0=1, select bank1
  7416     16EA  1303               	bcf	3,6	;RP1=0, select bank1
  7417     16EB  1291               	bcf	17,5	;volatile
  7418     16EC                     l177:	
  7419                           ;i2c.c: 58:     }
  7420                           
  7421                           
  7422                           ;i2c.c: 60:     ACKEN = 1;
  7423     16EC  1611               	bsf	17,4	;volatile
  7424     16ED                     l3427:
  7425                           
  7426                           ;i2c.c: 62:     return data;
  7427     16ED  0874               	movf	i2c_read@data,w
  7428     16EE                     l178:
  7429     16EE  0008               	return
  7430     16EF                     __end_of_i2c_read:
  7431                           
  7432                           	psect	text34
  7433     1628                     __ptext34:	
  7434 ;; *************** function _i2c_wait_for_idle *****************
  7435 ;; Defined at:
  7436 ;;		line 16 in file "i2c.c"
  7437 ;; Parameters:    Size  Location     Type
  7438 ;;		None
  7439 ;; Auto vars:     Size  Location     Type
  7440 ;;		None
  7441 ;; Return value:  Size  Location     Type
  7442 ;;                  1    wreg      void 
  7443 ;; Registers used:
  7444 ;;		wreg, status,2
  7445 ;; Tracked objects:
  7446 ;;		On entry : 0/0
  7447 ;;		On exit  : 0/0
  7448 ;;		Unchanged: 0/0
  7449 ;; Data sizes:     COMMON   BANK0   BANK1   BANK3   BANK2
  7450 ;;      Params:         0       0       0       0       0
  7451 ;;      Locals:         0       0       0       0       0
  7452 ;;      Temps:          0       0       0       0       0
  7453 ;;      Totals:         0       0       0       0       0
  7454 ;;Total ram usage:        0 bytes
  7455 ;; Hardware stack levels used: 1
  7456 ;; Hardware stack levels required when called: 1
  7457 ;; This function calls:
  7458 ;;		Nothing
  7459 ;; This function is called by:
  7460 ;;		_i2c_start
  7461 ;;		_i2c_stop
  7462 ;;		_i2c_read
  7463 ;;		_i2c_write
  7464 ;; This function uses a non-reentrant model
  7465 ;;
  7466                           
  7467     1628                     _i2c_wait_for_idle:	
  7468                           ;psect for function _i2c_wait_for_idle
  7469                           
  7470     1628                     l3395:	
  7471                           ;incstack = 0
  7472                           ; Regs used in _i2c_wait_for_idle: [wreg+status,2]
  7473                           
  7474     1628                     l161:	
  7475                           ;i2c.c: 19:     while (R_nW || (SSPCON2 & 0x1F));
  7476                           
  7477     1628  1683               	bsf	3,5	;RP0=1, select bank1
  7478     1629  1303               	bcf	3,6	;RP1=0, select bank1
  7479     162A  1914               	btfsc	20,2	;volatile
  7480     162B  2E2D               	goto	u2841
  7481     162C  2E2E               	goto	u2840
  7482     162D                     u2841:
  7483     162D  2E28               	goto	l161
  7484     162E                     u2840:
  7485     162E                     l3397:
  7486     162E  0811               	movf	17,w	;volatile
  7487     162F  391F               	andlw	31
  7488     1630  1D03               	btfss	3,2
  7489     1631  2E33               	goto	u2851
  7490     1632  2E34               	goto	u2850
  7491     1633                     u2851:
  7492     1633  2E28               	goto	l161
  7493     1634                     u2850:
  7494     1634                     l164:
  7495     1634  0008               	return
  7496     1635                     __end_of_i2c_wait_for_idle:
  7497                           
  7498                           	psect	text35
  7499     0AE3                     __ptext35:	
  7500 ;; *************** function ___awmod *****************
  7501 ;; Defined at:
  7502 ;;		line 5 in file "C:\Program Files\Microchip\xc8\v2.40\pic\sources\c90\common\awmod.c"
  7503 ;; Parameters:    Size  Location     Type
  7504 ;;  divisor         2    0[BANK0 ] int 
  7505 ;;  dividend        2    2[BANK0 ] int 
  7506 ;; Auto vars:     Size  Location     Type
  7507 ;;  sign            1    5[COMMON] unsigned char 
  7508 ;;  counter         1    4[COMMON] unsigned char 
  7509 ;; Return value:  Size  Location     Type
  7510 ;;                  2    0[BANK0 ] int 
  7511 ;; Registers used:
  7512 ;;		wreg, status,2, status,0
  7513 ;; Tracked objects:
  7514 ;;		On entry : 0/0
  7515 ;;		On exit  : 0/0
  7516 ;;		Unchanged: 0/0
  7517 ;; Data sizes:     COMMON   BANK0   BANK1   BANK3   BANK2
  7518 ;;      Params:         0       4       0       0       0
  7519 ;;      Locals:         2       0       0       0       0
  7520 ;;      Temps:          1       0       0       0       0
  7521 ;;      Totals:         3       4       0       0       0
  7522 ;;Total ram usage:        7 bytes
  7523 ;; Hardware stack levels used: 1
  7524 ;; Hardware stack levels required when called: 1
  7525 ;; This function calls:
  7526 ;;		Nothing
  7527 ;; This function is called by:
  7528 ;;		_display_dash_board
  7529 ;;		_log_event
  7530 ;;		_login
  7531 ;;		_view_log
  7532 ;; This function uses a non-reentrant model
  7533 ;;
  7534                           
  7535     0AE3                     ___awmod:	
  7536                           ;psect for function ___awmod
  7537                           
  7538     0AE3                     l3701:	
  7539                           ;incstack = 0
  7540                           ; Regs used in ___awmod: [wreg+status,2+status,0]
  7541                           
  7542     0AE3  01F5               	clrf	___awmod@sign
  7543     0AE4                     l3703:
  7544     0AE4  1283               	bcf	3,5	;RP0=0, select bank0
  7545     0AE5  1303               	bcf	3,6	;RP1=0, select bank0
  7546     0AE6  1FA3               	btfss	___awmod@dividend+1,7
  7547     0AE7  2AE9               	goto	u3261
  7548     0AE8  2AEA               	goto	u3260
  7549     0AE9                     u3261:
  7550     0AE9  2AF1               	goto	l3709
  7551     0AEA                     u3260:
  7552     0AEA                     l3705:
  7553     0AEA  09A2               	comf	___awmod@dividend,f
  7554     0AEB  09A3               	comf	___awmod@dividend+1,f
  7555     0AEC  0AA2               	incf	___awmod@dividend,f
  7556     0AED  1903               	skipnz
  7557     0AEE  0AA3               	incf	___awmod@dividend+1,f
  7558     0AEF                     l3707:
  7559     0AEF  01F5               	clrf	___awmod@sign
  7560     0AF0  0AF5               	incf	___awmod@sign,f
  7561     0AF1                     l3709:
  7562     0AF1  1FA1               	btfss	___awmod@divisor+1,7
  7563     0AF2  2AF4               	goto	u3271
  7564     0AF3  2AF5               	goto	u3270
  7565     0AF4                     u3271:
  7566     0AF4  2AFA               	goto	l3713
  7567     0AF5                     u3270:
  7568     0AF5                     l3711:
  7569     0AF5  09A0               	comf	___awmod@divisor,f
  7570     0AF6  09A1               	comf	___awmod@divisor+1,f
  7571     0AF7  0AA0               	incf	___awmod@divisor,f
  7572     0AF8  1903               	skipnz
  7573     0AF9  0AA1               	incf	___awmod@divisor+1,f
  7574     0AFA                     l3713:
  7575     0AFA  0820               	movf	___awmod@divisor,w
  7576     0AFB  0421               	iorwf	___awmod@divisor+1,w
  7577     0AFC  1903               	btfsc	3,2
  7578     0AFD  2AFF               	goto	u3281
  7579     0AFE  2B00               	goto	u3280
  7580     0AFF                     u3281:
  7581     0AFF  2B2F               	goto	l3731
  7582     0B00                     u3280:
  7583     0B00                     l3715:
  7584     0B00  01F4               	clrf	___awmod@counter
  7585     0B01  0AF4               	incf	___awmod@counter,f
  7586     0B02  2B0E               	goto	l3721
  7587     0B03                     l3717:
  7588     0B03  3001               	movlw	1
  7589     0B04                     u3295:
  7590     0B04  1003               	clrc
  7591     0B05  0DA0               	rlf	___awmod@divisor,f
  7592     0B06  0DA1               	rlf	___awmod@divisor+1,f
  7593     0B07  3EFF               	addlw	-1
  7594     0B08  1D03               	skipz
  7595     0B09  2B04               	goto	u3295
  7596     0B0A                     l3719:
  7597     0B0A  3001               	movlw	1
  7598     0B0B  00F3               	movwf	??___awmod
  7599     0B0C  0873               	movf	??___awmod,w
  7600     0B0D  07F4               	addwf	___awmod@counter,f
  7601     0B0E                     l3721:
  7602     0B0E  1FA1               	btfss	___awmod@divisor+1,7
  7603     0B0F  2B11               	goto	u3301
  7604     0B10  2B12               	goto	u3300
  7605     0B11                     u3301:
  7606     0B11  2B03               	goto	l3717
  7607     0B12                     u3300:
  7608     0B12                     l3723:
  7609     0B12  0821               	movf	___awmod@divisor+1,w
  7610     0B13  0223               	subwf	___awmod@dividend+1,w
  7611     0B14  1D03               	skipz
  7612     0B15  2B18               	goto	u3315
  7613     0B16  0820               	movf	___awmod@divisor,w
  7614     0B17  0222               	subwf	___awmod@dividend,w
  7615     0B18                     u3315:
  7616     0B18  1C03               	skipc
  7617     0B19  2B1B               	goto	u3311
  7618     0B1A  2B1C               	goto	u3310
  7619     0B1B                     u3311:
  7620     0B1B  2B22               	goto	l3727
  7621     0B1C                     u3310:
  7622     0B1C                     l3725:
  7623     0B1C  0820               	movf	___awmod@divisor,w
  7624     0B1D  02A2               	subwf	___awmod@dividend,f
  7625     0B1E  0821               	movf	___awmod@divisor+1,w
  7626     0B1F  1C03               	skipc
  7627     0B20  03A3               	decf	___awmod@dividend+1,f
  7628     0B21  02A3               	subwf	___awmod@dividend+1,f
  7629     0B22                     l3727:
  7630     0B22  3001               	movlw	1
  7631     0B23                     u3325:
  7632     0B23  1003               	clrc
  7633     0B24  0CA1               	rrf	___awmod@divisor+1,f
  7634     0B25  0CA0               	rrf	___awmod@divisor,f
  7635     0B26  3EFF               	addlw	-1
  7636     0B27  1D03               	skipz
  7637     0B28  2B23               	goto	u3325
  7638     0B29                     l3729:
  7639     0B29  3001               	movlw	1
  7640     0B2A  02F4               	subwf	___awmod@counter,f
  7641     0B2B  1D03               	btfss	3,2
  7642     0B2C  2B2E               	goto	u3331
  7643     0B2D  2B2F               	goto	u3330
  7644     0B2E                     u3331:
  7645     0B2E  2B12               	goto	l3723
  7646     0B2F                     u3330:
  7647     0B2F                     l3731:
  7648     0B2F  0875               	movf	___awmod@sign,w
  7649     0B30  1903               	btfsc	3,2
  7650     0B31  2B33               	goto	u3341
  7651     0B32  2B34               	goto	u3340
  7652     0B33                     u3341:
  7653     0B33  2B39               	goto	l3735
  7654     0B34                     u3340:
  7655     0B34                     l3733:
  7656     0B34  09A2               	comf	___awmod@dividend,f
  7657     0B35  09A3               	comf	___awmod@dividend+1,f
  7658     0B36  0AA2               	incf	___awmod@dividend,f
  7659     0B37  1903               	skipnz
  7660     0B38  0AA3               	incf	___awmod@dividend+1,f
  7661     0B39                     l3735:
  7662     0B39  0823               	movf	___awmod@dividend+1,w
  7663     0B3A  00A1               	movwf	?___awmod+1
  7664     0B3B  0822               	movf	___awmod@dividend,w
  7665     0B3C  00A0               	movwf	?___awmod
  7666     0B3D                     l766:
  7667     0B3D  0008               	return
  7668     0B3E                     __end_of___awmod:
  7669                           
  7670                           	psect	text36
  7671     0CCC                     __ptext36:	
  7672 ;; *************** function ___awdiv *****************
  7673 ;; Defined at:
  7674 ;;		line 5 in file "C:\Program Files\Microchip\xc8\v2.40\pic\sources\c90\common\awdiv.c"
  7675 ;; Parameters:    Size  Location     Type
  7676 ;;  divisor         2    0[BANK0 ] int 
  7677 ;;  dividend        2    2[BANK0 ] int 
  7678 ;; Auto vars:     Size  Location     Type
  7679 ;;  quotient        2    6[BANK0 ] int 
  7680 ;;  sign            1    5[BANK0 ] unsigned char 
  7681 ;;  counter         1    4[BANK0 ] unsigned char 
  7682 ;; Return value:  Size  Location     Type
  7683 ;;                  2    0[BANK0 ] int 
  7684 ;; Registers used:
  7685 ;;		wreg, status,2, status,0
  7686 ;; Tracked objects:
  7687 ;;		On entry : 0/0
  7688 ;;		On exit  : 0/0
  7689 ;;		Unchanged: 0/0
  7690 ;; Data sizes:     COMMON   BANK0   BANK1   BANK3   BANK2
  7691 ;;      Params:         0       4       0       0       0
  7692 ;;      Locals:         0       4       0       0       0
  7693 ;;      Temps:          1       0       0       0       0
  7694 ;;      Totals:         1       8       0       0       0
  7695 ;;Total ram usage:        9 bytes
  7696 ;; Hardware stack levels used: 1
  7697 ;; Hardware stack levels required when called: 1
  7698 ;; This function calls:
  7699 ;;		Nothing
  7700 ;; This function is called by:
  7701 ;;		_display_dash_board
  7702 ;;		_log_event
  7703 ;;		_login
  7704 ;; This function uses a non-reentrant model
  7705 ;;
  7706                           
  7707     0CCC                     ___awdiv:	
  7708                           ;psect for function ___awdiv
  7709                           
  7710     0CCC                     l3657:	
  7711                           ;incstack = 0
  7712                           ; Regs used in ___awdiv: [wreg+status,2+status,0]
  7713                           
  7714     0CCC  1283               	bcf	3,5	;RP0=0, select bank0
  7715     0CCD  1303               	bcf	3,6	;RP1=0, select bank0
  7716     0CCE  01A5               	clrf	___awdiv@sign
  7717     0CCF                     l3659:
  7718     0CCF  1FA1               	btfss	___awdiv@divisor+1,7
  7719     0CD0  2CD2               	goto	u3161
  7720     0CD1  2CD3               	goto	u3160
  7721     0CD2                     u3161:
  7722     0CD2  2CDA               	goto	l3665
  7723     0CD3                     u3160:
  7724     0CD3                     l3661:
  7725     0CD3  09A0               	comf	___awdiv@divisor,f
  7726     0CD4  09A1               	comf	___awdiv@divisor+1,f
  7727     0CD5  0AA0               	incf	___awdiv@divisor,f
  7728     0CD6  1903               	skipnz
  7729     0CD7  0AA1               	incf	___awdiv@divisor+1,f
  7730     0CD8                     l3663:
  7731     0CD8  01A5               	clrf	___awdiv@sign
  7732     0CD9  0AA5               	incf	___awdiv@sign,f
  7733     0CDA                     l3665:
  7734     0CDA  1FA3               	btfss	___awdiv@dividend+1,7
  7735     0CDB  2CDD               	goto	u3171
  7736     0CDC  2CDE               	goto	u3170
  7737     0CDD                     u3171:
  7738     0CDD  2CE7               	goto	l3671
  7739     0CDE                     u3170:
  7740     0CDE                     l3667:
  7741     0CDE  09A2               	comf	___awdiv@dividend,f
  7742     0CDF  09A3               	comf	___awdiv@dividend+1,f
  7743     0CE0  0AA2               	incf	___awdiv@dividend,f
  7744     0CE1  1903               	skipnz
  7745     0CE2  0AA3               	incf	___awdiv@dividend+1,f
  7746     0CE3                     l3669:
  7747     0CE3  3001               	movlw	1
  7748     0CE4  00F3               	movwf	??___awdiv
  7749     0CE5  0873               	movf	??___awdiv,w
  7750     0CE6  06A5               	xorwf	___awdiv@sign,f
  7751     0CE7                     l3671:
  7752     0CE7  01A6               	clrf	___awdiv@quotient
  7753     0CE8  01A7               	clrf	___awdiv@quotient+1
  7754     0CE9                     l3673:
  7755     0CE9  0820               	movf	___awdiv@divisor,w
  7756     0CEA  0421               	iorwf	___awdiv@divisor+1,w
  7757     0CEB  1903               	btfsc	3,2
  7758     0CEC  2CEE               	goto	u3181
  7759     0CED  2CEF               	goto	u3180
  7760     0CEE                     u3181:
  7761     0CEE  2D26               	goto	l3693
  7762     0CEF                     u3180:
  7763     0CEF                     l3675:
  7764     0CEF  01A4               	clrf	___awdiv@counter
  7765     0CF0  0AA4               	incf	___awdiv@counter,f
  7766     0CF1  2CFD               	goto	l3681
  7767     0CF2                     l3677:
  7768     0CF2  3001               	movlw	1
  7769     0CF3                     u3195:
  7770     0CF3  1003               	clrc
  7771     0CF4  0DA0               	rlf	___awdiv@divisor,f
  7772     0CF5  0DA1               	rlf	___awdiv@divisor+1,f
  7773     0CF6  3EFF               	addlw	-1
  7774     0CF7  1D03               	skipz
  7775     0CF8  2CF3               	goto	u3195
  7776     0CF9                     l3679:
  7777     0CF9  3001               	movlw	1
  7778     0CFA  00F3               	movwf	??___awdiv
  7779     0CFB  0873               	movf	??___awdiv,w
  7780     0CFC  07A4               	addwf	___awdiv@counter,f
  7781     0CFD                     l3681:
  7782     0CFD  1FA1               	btfss	___awdiv@divisor+1,7
  7783     0CFE  2D00               	goto	u3201
  7784     0CFF  2D01               	goto	u3200
  7785     0D00                     u3201:
  7786     0D00  2CF2               	goto	l3677
  7787     0D01                     u3200:
  7788     0D01                     l3683:
  7789     0D01  3001               	movlw	1
  7790     0D02                     u3215:
  7791     0D02  1003               	clrc
  7792     0D03  0DA6               	rlf	___awdiv@quotient,f
  7793     0D04  0DA7               	rlf	___awdiv@quotient+1,f
  7794     0D05  3EFF               	addlw	-1
  7795     0D06  1D03               	skipz
  7796     0D07  2D02               	goto	u3215
  7797     0D08  0821               	movf	___awdiv@divisor+1,w
  7798     0D09  0223               	subwf	___awdiv@dividend+1,w
  7799     0D0A  1D03               	skipz
  7800     0D0B  2D0E               	goto	u3225
  7801     0D0C  0820               	movf	___awdiv@divisor,w
  7802     0D0D  0222               	subwf	___awdiv@dividend,w
  7803     0D0E                     u3225:
  7804     0D0E  1C03               	skipc
  7805     0D0F  2D11               	goto	u3221
  7806     0D10  2D12               	goto	u3220
  7807     0D11                     u3221:
  7808     0D11  2D19               	goto	l3689
  7809     0D12                     u3220:
  7810     0D12                     l3685:
  7811     0D12  0820               	movf	___awdiv@divisor,w
  7812     0D13  02A2               	subwf	___awdiv@dividend,f
  7813     0D14  0821               	movf	___awdiv@divisor+1,w
  7814     0D15  1C03               	skipc
  7815     0D16  03A3               	decf	___awdiv@dividend+1,f
  7816     0D17  02A3               	subwf	___awdiv@dividend+1,f
  7817     0D18                     l3687:
  7818     0D18  1426               	bsf	___awdiv@quotient,0
  7819     0D19                     l3689:
  7820     0D19  3001               	movlw	1
  7821     0D1A                     u3235:
  7822     0D1A  1003               	clrc
  7823     0D1B  0CA1               	rrf	___awdiv@divisor+1,f
  7824     0D1C  0CA0               	rrf	___awdiv@divisor,f
  7825     0D1D  3EFF               	addlw	-1
  7826     0D1E  1D03               	skipz
  7827     0D1F  2D1A               	goto	u3235
  7828     0D20                     l3691:
  7829     0D20  3001               	movlw	1
  7830     0D21  02A4               	subwf	___awdiv@counter,f
  7831     0D22  1D03               	btfss	3,2
  7832     0D23  2D25               	goto	u3241
  7833     0D24  2D26               	goto	u3240
  7834     0D25                     u3241:
  7835     0D25  2D01               	goto	l3683
  7836     0D26                     u3240:
  7837     0D26                     l3693:
  7838     0D26  0825               	movf	___awdiv@sign,w
  7839     0D27  1903               	btfsc	3,2
  7840     0D28  2D2A               	goto	u3251
  7841     0D29  2D2B               	goto	u3250
  7842     0D2A                     u3251:
  7843     0D2A  2D30               	goto	l3697
  7844     0D2B                     u3250:
  7845     0D2B                     l3695:
  7846     0D2B  09A6               	comf	___awdiv@quotient,f
  7847     0D2C  09A7               	comf	___awdiv@quotient+1,f
  7848     0D2D  0AA6               	incf	___awdiv@quotient,f
  7849     0D2E  1903               	skipnz
  7850     0D2F  0AA7               	incf	___awdiv@quotient+1,f
  7851     0D30                     l3697:
  7852     0D30  0827               	movf	___awdiv@quotient+1,w
  7853     0D31  00A1               	movwf	?___awdiv+1
  7854     0D32  0826               	movf	___awdiv@quotient,w
  7855     0D33  00A0               	movwf	?___awdiv
  7856     0D34                     l753:
  7857     0D34  0008               	return
  7858     0D35                     __end_of___awdiv:
  7859                           
  7860                           	psect	text37
  7861     0909                     __ptext37:	
  7862 ;; *************** function _clear_log *****************
  7863 ;; Defined at:
  7864 ;;		line 281 in file "car_black_box_def.c"
  7865 ;; Parameters:    Size  Location     Type
  7866 ;;  reset_flag      1    wreg     unsigned char 
  7867 ;; Auto vars:     Size  Location     Type
  7868 ;;  reset_flag      1    7[BANK0 ] unsigned char 
  7869 ;; Return value:  Size  Location     Type
  7870 ;;                  1    wreg      unsigned char 
  7871 ;; Registers used:
  7872 ;;		wreg, fsr0l, fsr0h, status,2, status,0, btemp+1, pclath, cstack
  7873 ;; Tracked objects:
  7874 ;;		On entry : 0/0
  7875 ;;		On exit  : 0/0
  7876 ;;		Unchanged: 0/0
  7877 ;; Data sizes:     COMMON   BANK0   BANK1   BANK3   BANK2
  7878 ;;      Params:         0       0       0       0       0
  7879 ;;      Locals:         0       1       0       0       0
  7880 ;;      Temps:          0       3       0       0       0
  7881 ;;      Totals:         0       4       0       0       0
  7882 ;;Total ram usage:        4 bytes
  7883 ;; Hardware stack levels used: 1
  7884 ;; Hardware stack levels required when called: 3
  7885 ;; This function calls:
  7886 ;;		_clcd_print
  7887 ;; This function is called by:
  7888 ;;		_main
  7889 ;; This function uses a non-reentrant model
  7890 ;;
  7891                           
  7892     0909                     _clear_log:	
  7893                           ;psect for function _clear_log
  7894                           
  7895                           
  7896                           ;incstack = 0
  7897                           ; Regs used in _clear_log: [wreg-fsr0h+status,2+status,0+btemp+1+pclath+cstack]
  7898                           ;clear_log@reset_flag stored from wreg
  7899     0909  1283               	bcf	3,5	;RP0=0, select bank0
  7900     090A  1303               	bcf	3,6	;RP1=0, select bank0
  7901     090B  00A7               	movwf	clear_log@reset_flag
  7902     090C                     l4021:
  7903                           
  7904                           ;car_black_box_def.c: 281: unsigned char clear_log(unsigned char reset_flag);car_black_b
      +                          ox_def.c: 282: {;car_black_box_def.c: 283:     if( reset_flag == 0x04)
  7905     090C  3004               	movlw	4
  7906     090D  0627               	xorwf	clear_log@reset_flag,w
  7907     090E  1D03               	btfss	3,2
  7908     090F  2911               	goto	u3691
  7909     0910  2912               	goto	u3690
  7910     0911                     u3691:
  7911     0911  2940               	goto	l4031
  7912     0912                     u3690:
  7913     0912                     l4023:
  7914                           
  7915                           ;car_black_box_def.c: 284:     {;car_black_box_def.c: 285:         pos = -1;
  7916     0912  30FF               	movlw	255
  7917     0913  00DB               	movwf	_pos
  7918                           
  7919                           ;car_black_box_def.c: 286:         access = -1;
  7920     0914  30FF               	movlw	255
  7921     0915  00C8               	movwf	_access
  7922     0916  30FF               	movlw	255
  7923     0917  00C9               	movwf	_access+1
  7924     0918                     l4025:
  7925                           
  7926                           ;car_black_box_def.c: 287:         clcd_print(" Logs Cleared ",(0x80 + 0));
  7927     0918  3088               	movlw	low (STR_24| (0+32768))
  7928     0919  00A1               	movwf	clcd_print@str
  7929     091A  3086               	movlw	high (STR_24| (0+32768))
  7930     091B  00A2               	movwf	clcd_print@str+1
  7931     091C  3080               	movlw	128
  7932     091D  00A3               	movwf	clcd_print@addr
  7933     091E  120A  158A  203C  120A  158A  	fcall	_clcd_print
  7934     0923                     l4027:
  7935                           
  7936                           ;car_black_box_def.c: 288:         clcd_print(" Successfully ",(0xC0 + 0));
  7937     0923  3097               	movlw	low (STR_25| (0+32768))
  7938     0924  1283               	bcf	3,5	;RP0=0, select bank0
  7939     0925  1303               	bcf	3,6	;RP1=0, select bank0
  7940     0926  00A1               	movwf	clcd_print@str
  7941     0927  3086               	movlw	high (STR_25| (0+32768))
  7942     0928  00A2               	movwf	clcd_print@str+1
  7943     0929  30C0               	movlw	192
  7944     092A  00A3               	movwf	clcd_print@addr
  7945     092B  120A  158A  203C  120A  158A  	fcall	_clcd_print
  7946                           
  7947                           ;car_black_box_def.c: 289:         _delay((unsigned long)((3000)*(20000000/4000.0)));
  7948     0930  304D               	movlw	77
  7949     0931  1283               	bcf	3,5	;RP0=0, select bank0
  7950     0932  1303               	bcf	3,6	;RP1=0, select bank0
  7951     0933  00A6               	movwf	??_clear_log+2
  7952     0934  3019               	movlw	25
  7953     0935  00A5               	movwf	??_clear_log+1
  7954     0936  304F               	movlw	79
  7955     0937  00A4               	movwf	??_clear_log
  7956     0938                     u4347:
  7957     0938  0BA4               	decfsz	??_clear_log,f
  7958     0939  2938               	goto	u4347
  7959     093A  0BA5               	decfsz	??_clear_log+1,f
  7960     093B  2938               	goto	u4347
  7961     093C  0BA6               	decfsz	??_clear_log+2,f
  7962     093D  2938               	goto	u4347
  7963                           
  7964                           ;car_black_box_def.c: 290:          return 0x11;
  7965     093E  3011               	movlw	17
  7966     093F  2941               	goto	l373
  7967     0940                     l4031:
  7968                           
  7969                           ;car_black_box_def.c: 292:     return 0x22;
  7970     0940  3022               	movlw	34
  7971     0941                     l373:
  7972     0941  0008               	return
  7973     0942                     __end_of_clear_log:
  7974                           
  7975                           	psect	text38
  7976     04B9                     __ptext38:	
  7977 ;; *************** function _change_password *****************
  7978 ;; Defined at:
  7979 ;;		line 381 in file "car_black_box_def.c"
  7980 ;; Parameters:    Size  Location     Type
  7981 ;;  key             1    wreg     unsigned char 
  7982 ;;  reset_flag      1   10[BANK0 ] unsigned char 
  7983 ;; Auto vars:     Size  Location     Type
  7984 ;;  key             1   14[BANK0 ] unsigned char 
  7985 ;;  i               2   15[BANK0 ] int 
  7986 ;; Return value:  Size  Location     Type
  7987 ;;                  1    wreg      unsigned char 
  7988 ;; Registers used:
  7989 ;;		wreg, fsr0l, fsr0h, status,2, status,0, btemp+1, pclath, cstack
  7990 ;; Tracked objects:
  7991 ;;		On entry : 0/0
  7992 ;;		On exit  : 0/0
  7993 ;;		Unchanged: 0/0
  7994 ;; Data sizes:     COMMON   BANK0   BANK1   BANK3   BANK2
  7995 ;;      Params:         0       1       0       0       0
  7996 ;;      Locals:         0       3       0       0       0
  7997 ;;      Temps:          0       3       0       0       0
  7998 ;;      Totals:         0       7       0       0       0
  7999 ;;Total ram usage:        7 bytes
  8000 ;; Hardware stack levels used: 1
  8001 ;; Hardware stack levels required when called: 3
  8002 ;; This function calls:
  8003 ;;		_clcd_print
  8004 ;;		_clcd_putch
  8005 ;;		_clcd_write
  8006 ;;		_clear_screen
  8007 ;;		_eeprom_write
  8008 ;;		_strncmp
  8009 ;; This function is called by:
  8010 ;;		_main
  8011 ;; This function uses a non-reentrant model
  8012 ;;
  8013                           
  8014     04B9                     _change_password:	
  8015                           ;psect for function _change_password
  8016                           
  8017                           
  8018                           ;incstack = 0
  8019                           ; Regs used in _change_password: [wreg-fsr0h+status,2+status,0+btemp+1+pclath+cstack]
  8020                           ;change_password@key stored from wreg
  8021     04B9  1283               	bcf	3,5	;RP0=0, select bank0
  8022     04BA  1303               	bcf	3,6	;RP1=0, select bank0
  8023     04BB  00AE               	movwf	change_password@key
  8024     04BC                     l4107:
  8025                           
  8026                           ;car_black_box_def.c: 381: unsigned char change_password(unsigned char key,unsigned char
      +                           reset_flag);car_black_box_def.c: 382: {;car_black_box_def.c: 383:     static char pwd[9
      +                          ];;car_black_box_def.c: 384:     static int p,once;;car_black_box_def.c: 385:     if(res
      +                          et_flag==0x80)
  8027     04BC  3080               	movlw	128
  8028     04BD  062A               	xorwf	change_password@reset_flag,w
  8029     04BE  1D03               	btfss	3,2
  8030     04BF  2CC1               	goto	u3891
  8031     04C0  2CC2               	goto	u3890
  8032     04C1                     u3891:
  8033     04C1  2CC8               	goto	l4113
  8034     04C2                     u3890:
  8035     04C2                     l4109:
  8036                           
  8037                           ;car_black_box_def.c: 386:     {;car_black_box_def.c: 387:         p=0;
  8038     04C2  01C4               	clrf	change_password@p
  8039     04C3  01C5               	clrf	change_password@p+1
  8040     04C4                     l4111:
  8041                           
  8042                           ;car_black_box_def.c: 388:         once=1;
  8043     04C4  3001               	movlw	1
  8044     04C5  00C2               	movwf	change_password@once
  8045     04C6  3000               	movlw	0
  8046     04C7  00C3               	movwf	change_password@once+1
  8047     04C8                     l4113:
  8048                           
  8049                           ;car_black_box_def.c: 390:     if(p<4 && once)
  8050     04C8  0845               	movf	change_password@p+1,w
  8051     04C9  3A80               	xorlw	128
  8052     04CA  00FF               	movwf	btemp+1
  8053     04CB  3080               	movlw	128
  8054     04CC  027F               	subwf	btemp+1,w
  8055     04CD  1D03               	skipz
  8056     04CE  2CD1               	goto	u3905
  8057     04CF  3004               	movlw	4
  8058     04D0  0244               	subwf	change_password@p,w
  8059     04D1                     u3905:
  8060     04D1  1803               	skipnc
  8061     04D2  2CD4               	goto	u3901
  8062     04D3  2CD5               	goto	u3900
  8063     04D4                     u3901:
  8064     04D4  2CF9               	goto	l4125
  8065     04D5                     u3900:
  8066     04D5                     l4115:
  8067     04D5  1283               	bcf	3,5	;RP0=0, select bank0
  8068     04D6  1303               	bcf	3,6	;RP1=0, select bank0
  8069     04D7  0842               	movf	change_password@once,w
  8070     04D8  0443               	iorwf	change_password@once+1,w
  8071     04D9  1903               	btfsc	3,2
  8072     04DA  2CDC               	goto	u3911
  8073     04DB  2CDD               	goto	u3910
  8074     04DC                     u3911:
  8075     04DC  2CF9               	goto	l4125
  8076     04DD                     u3910:
  8077     04DD                     l4117:
  8078                           
  8079                           ;car_black_box_def.c: 391:     {;car_black_box_def.c: 392:         once=0;
  8080     04DD  01C2               	clrf	change_password@once
  8081     04DE  01C3               	clrf	change_password@once+1
  8082     04DF                     l4119:
  8083                           
  8084                           ;car_black_box_def.c: 393:         clcd_print("Enter New Pwd",(0x80 + 0));
  8085     04DF  30C4               	movlw	low (STR_26| (0+32768))
  8086     04E0  00A1               	movwf	clcd_print@str
  8087     04E1  3086               	movlw	high (STR_26| (0+32768))
  8088     04E2  00A2               	movwf	clcd_print@str+1
  8089     04E3  3080               	movlw	128
  8090     04E4  00A3               	movwf	clcd_print@addr
  8091     04E5  120A  158A  203C  120A  118A  	fcall	_clcd_print
  8092     04EA                     l4121:
  8093                           
  8094                           ;car_black_box_def.c: 394:         clcd_write((0xC0 + 0), 0);
  8095     04EA  01F3               	clrf	clcd_write@mode
  8096     04EB  30C0               	movlw	192
  8097     04EC  160A  118A  26EF  120A  118A  	fcall	_clcd_write
  8098     04F1                     l4123:
  8099                           
  8100                           ;car_black_box_def.c: 395:         clcd_write(0x0F,0);
  8101     04F1  01F3               	clrf	clcd_write@mode
  8102     04F2  300F               	movlw	15
  8103     04F3  160A  118A  26EF  120A  118A  	fcall	_clcd_write
  8104                           
  8105                           ;car_black_box_def.c: 396:     }
  8106     04F8  2D34               	goto	l4139
  8107     04F9                     l4125:
  8108     04F9  1283               	bcf	3,5	;RP0=0, select bank0
  8109     04FA  1303               	bcf	3,6	;RP1=0, select bank0
  8110     04FB  0845               	movf	change_password@p+1,w
  8111     04FC  3A80               	xorlw	128
  8112     04FD  00FF               	movwf	btemp+1
  8113     04FE  3080               	movlw	128
  8114     04FF  027F               	subwf	btemp+1,w
  8115     0500  1D03               	skipz
  8116     0501  2D04               	goto	u3925
  8117     0502  3004               	movlw	4
  8118     0503  0244               	subwf	change_password@p,w
  8119     0504                     u3925:
  8120     0504  1C03               	skipc
  8121     0505  2D07               	goto	u3921
  8122     0506  2D08               	goto	u3920
  8123     0507                     u3921:
  8124     0507  2D34               	goto	l4139
  8125     0508                     u3920:
  8126     0508                     l4127:
  8127     0508  1283               	bcf	3,5	;RP0=0, select bank0
  8128     0509  1303               	bcf	3,6	;RP1=0, select bank0
  8129     050A  0842               	movf	change_password@once,w
  8130     050B  0443               	iorwf	change_password@once+1,w
  8131     050C  1D03               	btfss	3,2
  8132     050D  2D0F               	goto	u3931
  8133     050E  2D10               	goto	u3930
  8134     050F                     u3931:
  8135     050F  2D34               	goto	l4139
  8136     0510                     u3930:
  8137     0510                     l4129:
  8138                           
  8139                           ;car_black_box_def.c: 398:     {;car_black_box_def.c: 399:         once=1;
  8140     0510  3001               	movlw	1
  8141     0511  00C2               	movwf	change_password@once
  8142     0512  3000               	movlw	0
  8143     0513  00C3               	movwf	change_password@once+1
  8144     0514                     l4131:
  8145                           
  8146                           ;car_black_box_def.c: 400:         clear_screen();
  8147     0514  160A  118A  2635  120A  118A  	fcall	_clear_screen
  8148     0519                     l4133:
  8149                           
  8150                           ;car_black_box_def.c: 401:         clcd_print("Re-enter New Pwd",(0x80 + 0));
  8151     0519  3025               	movlw	low (STR_27| (0+32768))
  8152     051A  1283               	bcf	3,5	;RP0=0, select bank0
  8153     051B  1303               	bcf	3,6	;RP1=0, select bank0
  8154     051C  00A1               	movwf	clcd_print@str
  8155     051D  3086               	movlw	high (STR_27| (0+32768))
  8156     051E  00A2               	movwf	clcd_print@str+1
  8157     051F  3080               	movlw	128
  8158     0520  00A3               	movwf	clcd_print@addr
  8159     0521  120A  158A  203C  120A  118A  	fcall	_clcd_print
  8160     0526                     l4135:
  8161                           
  8162                           ;car_black_box_def.c: 402:         clcd_write((0xC0 + 0), 0);
  8163     0526  01F3               	clrf	clcd_write@mode
  8164     0527  30C0               	movlw	192
  8165     0528  160A  118A  26EF  120A  118A  	fcall	_clcd_write
  8166     052D                     l4137:
  8167                           
  8168                           ;car_black_box_def.c: 403:         clcd_write(0x0F,0);
  8169     052D  01F3               	clrf	clcd_write@mode
  8170     052E  300F               	movlw	15
  8171     052F  160A  118A  26EF  120A  118A  	fcall	_clcd_write
  8172     0534                     l4139:
  8173                           
  8174                           ;car_black_box_def.c: 405:     if(key==0x37)
  8175     0534  3037               	movlw	55
  8176     0535  1283               	bcf	3,5	;RP0=0, select bank0
  8177     0536  1303               	bcf	3,6	;RP1=0, select bank0
  8178     0537  062E               	xorwf	change_password@key,w
  8179     0538  1D03               	btfss	3,2
  8180     0539  2D3B               	goto	u3941
  8181     053A  2D3C               	goto	u3940
  8182     053B                     u3941:
  8183     053B  2D55               	goto	l4147
  8184     053C                     u3940:
  8185     053C                     l4141:
  8186                           
  8187                           ;car_black_box_def.c: 406:     {;car_black_box_def.c: 407:         pwd[p]='4';
  8188     053C  0844               	movf	change_password@p,w
  8189     053D  3EAB               	addlw	(low (change_password@pwd| 0))& (0+255)
  8190     053E  0084               	movwf	4
  8191     053F  3034               	movlw	52
  8192     0540  1383               	bcf	3,7	;select IRP bank1
  8193     0541  0080               	movwf	0
  8194     0542                     l4143:
  8195                           
  8196                           ;car_black_box_def.c: 408:         clcd_putch('*',(0xC0 + p%4));
  8197     0542  0844               	movf	change_password@p,w
  8198     0543  3903               	andlw	3
  8199     0544  3EC0               	addlw	192
  8200     0545  00A8               	movwf	clcd_putch@addr
  8201     0546  302A               	movlw	42
  8202     0547  160A  118A  266E  120A  118A  	fcall	_clcd_putch
  8203     054C                     l4145:
  8204                           
  8205                           ;car_black_box_def.c: 409:         p++;
  8206     054C  3001               	movlw	1
  8207     054D  1283               	bcf	3,5	;RP0=0, select bank0
  8208     054E  1303               	bcf	3,6	;RP1=0, select bank0
  8209     054F  07C4               	addwf	change_password@p,f
  8210     0550  1803               	skipnc
  8211     0551  0AC5               	incf	change_password@p+1,f
  8212     0552  3000               	movlw	0
  8213     0553  07C5               	addwf	change_password@p+1,f
  8214                           
  8215                           ;car_black_box_def.c: 410:     }
  8216     0554  2D6C               	goto	l4155
  8217     0555                     l4147:
  8218     0555  302F               	movlw	47
  8219     0556  062E               	xorwf	change_password@key,w
  8220     0557  1D03               	btfss	3,2
  8221     0558  2D5A               	goto	u3951
  8222     0559  2D5B               	goto	u3950
  8223     055A                     u3951:
  8224     055A  2D6C               	goto	l4155
  8225     055B                     u3950:
  8226     055B                     l4149:
  8227                           
  8228                           ;car_black_box_def.c: 412:     {;car_black_box_def.c: 413:         pwd[p]='2';
  8229     055B  0844               	movf	change_password@p,w
  8230     055C  3EAB               	addlw	(low (change_password@pwd| 0))& (0+255)
  8231     055D  0084               	movwf	4
  8232     055E  3032               	movlw	50
  8233     055F  1383               	bcf	3,7	;select IRP bank1
  8234     0560  0080               	movwf	0
  8235     0561                     l4151:
  8236                           
  8237                           ;car_black_box_def.c: 414:         clcd_putch('*',(0xC0 + p%4));
  8238     0561  0844               	movf	change_password@p,w
  8239     0562  3903               	andlw	3
  8240     0563  3EC0               	addlw	192
  8241     0564  00A8               	movwf	clcd_putch@addr
  8242     0565  302A               	movlw	42
  8243     0566  160A  118A  266E  120A  118A  	fcall	_clcd_putch
  8244     056B  2D4C               	goto	l4145
  8245     056C                     l4155:
  8246                           
  8247                           ;car_black_box_def.c: 417:     if(p==8)
  8248     056C  3008               	movlw	8
  8249     056D  0644               	xorwf	change_password@p,w
  8250     056E  0445               	iorwf	change_password@p+1,w
  8251     056F  1D03               	btfss	3,2
  8252     0570  2D72               	goto	u3961
  8253     0571  2D73               	goto	u3960
  8254     0572                     u3961:
  8255     0572  2DFB               	goto	l419
  8256     0573                     u3960:
  8257     0573                     l4157:
  8258                           
  8259                           ;car_black_box_def.c: 418:     {;car_black_box_def.c: 419:         if(strncmp(pwd,&pwd[4
      +                          ],4)==0)
  8260     0573  30AF               	movlw	(low ((change_password@pwd| 0+4)))& (0+255)
  8261     0574  00F3               	movwf	strncmp@s2
  8262     0575  3004               	movlw	4
  8263     0576  00F4               	movwf	strncmp@len
  8264     0577  3000               	movlw	0
  8265     0578  00F5               	movwf	strncmp@len+1
  8266     0579  30AB               	movlw	(low (change_password@pwd| 0))& (0+255)
  8267     057A  120A  158A  21BC  120A  118A  	fcall	_strncmp
  8268     057F  0873               	movf	?_strncmp,w
  8269     0580  0474               	iorwf	?_strncmp+1,w
  8270     0581  1D03               	btfss	3,2
  8271     0582  2D84               	goto	u3971
  8272     0583  2D85               	goto	u3970
  8273     0584                     u3971:
  8274     0584  2DDB               	goto	l4185
  8275     0585                     u3970:
  8276     0585                     l4159:
  8277                           
  8278                           ;car_black_box_def.c: 420:         {;car_black_box_def.c: 422:             for(int i=0;i
      +                          <4;i++)
  8279     0585  1283               	bcf	3,5	;RP0=0, select bank0
  8280     0586  1303               	bcf	3,6	;RP1=0, select bank0
  8281     0587  01AF               	clrf	change_password@i
  8282     0588  01B0               	clrf	change_password@i+1
  8283     0589                     l4165:
  8284                           
  8285                           ;car_black_box_def.c: 423:             {;car_black_box_def.c: 424:                 eepro
      +                          m_write(i,pwd[i]);
  8286     0589  1283               	bcf	3,5	;RP0=0, select bank0
  8287     058A  1303               	bcf	3,6	;RP1=0, select bank0
  8288     058B  082F               	movf	change_password@i,w
  8289     058C  3EAB               	addlw	(low (change_password@pwd| 0))& (0+255)
  8290     058D  0084               	movwf	4
  8291     058E  1383               	bcf	3,7	;select IRP bank1
  8292     058F  0800               	movf	0,w
  8293     0590  00F3               	movwf	eeprom_write@value
  8294     0591  082F               	movf	change_password@i,w
  8295     0592  160A  118A  27D3  120A  118A  	fcall	_eeprom_write
  8296     0597                     l4167:
  8297                           
  8298                           ;car_black_box_def.c: 425:             }
  8299     0597  3001               	movlw	1
  8300     0598  1283               	bcf	3,5	;RP0=0, select bank0
  8301     0599  1303               	bcf	3,6	;RP1=0, select bank0
  8302     059A  07AF               	addwf	change_password@i,f
  8303     059B  1803               	skipnc
  8304     059C  0AB0               	incf	change_password@i+1,f
  8305     059D  3000               	movlw	0
  8306     059E  07B0               	addwf	change_password@i+1,f
  8307     059F                     l4169:
  8308     059F  0830               	movf	change_password@i+1,w
  8309     05A0  3A80               	xorlw	128
  8310     05A1  00FF               	movwf	btemp+1
  8311     05A2  3080               	movlw	128
  8312     05A3  027F               	subwf	btemp+1,w
  8313     05A4  1D03               	skipz
  8314     05A5  2DA8               	goto	u3985
  8315     05A6  3004               	movlw	4
  8316     05A7  022F               	subwf	change_password@i,w
  8317     05A8                     u3985:
  8318     05A8  1C03               	skipc
  8319     05A9  2DAB               	goto	u3981
  8320     05AA  2DAC               	goto	u3980
  8321     05AB                     u3981:
  8322     05AB  2D89               	goto	l4165
  8323     05AC                     u3980:
  8324     05AC                     l4171:
  8325                           
  8326                           ;car_black_box_def.c: 426:             clear_screen();
  8327     05AC  160A  118A  2635  120A  118A  	fcall	_clear_screen
  8328     05B1                     l4173:
  8329                           
  8330                           ;car_black_box_def.c: 427:             clcd_print(" Password Change",(0x80 + 0));
  8331     05B1  3036               	movlw	low (STR_28| (0+32768))
  8332     05B2  1283               	bcf	3,5	;RP0=0, select bank0
  8333     05B3  1303               	bcf	3,6	;RP1=0, select bank0
  8334     05B4  00A1               	movwf	clcd_print@str
  8335     05B5  3086               	movlw	high (STR_28| (0+32768))
  8336     05B6  00A2               	movwf	clcd_print@str+1
  8337     05B7  3080               	movlw	128
  8338     05B8  00A3               	movwf	clcd_print@addr
  8339     05B9  120A  158A  203C  120A  118A  	fcall	_clcd_print
  8340     05BE                     l4175:
  8341                           
  8342                           ;car_black_box_def.c: 428:             clcd_print(" Successfully ",(0xC0 + 0));
  8343     05BE  3097               	movlw	low (STR_25| (0+32768))
  8344     05BF  1283               	bcf	3,5	;RP0=0, select bank0
  8345     05C0  1303               	bcf	3,6	;RP1=0, select bank0
  8346     05C1  00A1               	movwf	clcd_print@str
  8347     05C2  3086               	movlw	high (STR_25| (0+32768))
  8348     05C3  00A2               	movwf	clcd_print@str+1
  8349     05C4  30C0               	movlw	192
  8350     05C5  00A3               	movwf	clcd_print@addr
  8351     05C6  120A  158A  203C  120A  118A  	fcall	_clcd_print
  8352     05CB                     l4177:
  8353                           
  8354                           ;car_black_box_def.c: 429:             _delay((unsigned long)((3000)*(20000000/4000.0)))
      +                          ;
  8355     05CB  304D               	movlw	77
  8356     05CC  1283               	bcf	3,5	;RP0=0, select bank0
  8357     05CD  1303               	bcf	3,6	;RP1=0, select bank0
  8358     05CE  00AD               	movwf	??_change_password+2
  8359     05CF  3019               	movlw	25
  8360     05D0  00AC               	movwf	??_change_password+1
  8361     05D1  304F               	movlw	79
  8362     05D2  00AB               	movwf	??_change_password
  8363     05D3                     u4357:
  8364     05D3  0BAB               	decfsz	??_change_password,f
  8365     05D4  2DD3               	goto	u4357
  8366     05D5  0BAC               	decfsz	??_change_password+1,f
  8367     05D6  2DD3               	goto	u4357
  8368     05D7  0BAD               	decfsz	??_change_password+2,f
  8369     05D8  2DD3               	goto	u4357
  8370     05D9                     l4179:
  8371                           
  8372                           ;car_black_box_def.c: 430:             return 0x11;
  8373     05D9  3011               	movlw	17
  8374     05DA  2DFB               	goto	l419
  8375     05DB                     l4185:
  8376                           
  8377                           ;car_black_box_def.c: 433:         {;car_black_box_def.c: 434:             clear_screen(
      +                          );
  8378     05DB  160A  118A  2635  120A  118A  	fcall	_clear_screen
  8379     05E0                     l4187:
  8380                           
  8381                           ;car_black_box_def.c: 435:             clcd_print(" Password Change",(0x80 + 0));
  8382     05E0  3036               	movlw	low (STR_28| (0+32768))
  8383     05E1  1283               	bcf	3,5	;RP0=0, select bank0
  8384     05E2  1303               	bcf	3,6	;RP1=0, select bank0
  8385     05E3  00A1               	movwf	clcd_print@str
  8386     05E4  3086               	movlw	high (STR_28| (0+32768))
  8387     05E5  00A2               	movwf	clcd_print@str+1
  8388     05E6  3080               	movlw	128
  8389     05E7  00A3               	movwf	clcd_print@addr
  8390     05E8  120A  158A  203C  120A  118A  	fcall	_clcd_print
  8391     05ED                     l4189:
  8392                           
  8393                           ;car_black_box_def.c: 436:             clcd_print(" Failed ",(0xC0 + 0));
  8394     05ED  300A               	movlw	low (STR_31| (0+32768))
  8395     05EE  1283               	bcf	3,5	;RP0=0, select bank0
  8396     05EF  1303               	bcf	3,6	;RP1=0, select bank0
  8397     05F0  00A1               	movwf	clcd_print@str
  8398     05F1  3087               	movlw	high (STR_31| (0+32768))
  8399     05F2  00A2               	movwf	clcd_print@str+1
  8400     05F3  30C0               	movlw	192
  8401     05F4  00A3               	movwf	clcd_print@addr
  8402     05F5  120A  158A  203C  120A  118A  	fcall	_clcd_print
  8403     05FA  2DCB               	goto	l4177
  8404     05FB                     l419:
  8405     05FB  0008               	return
  8406     05FC                     __end_of_change_password:
  8407                           
  8408                           	psect	text39
  8409     09BC                     __ptext39:	
  8410 ;; *************** function _strncmp *****************
  8411 ;; Defined at:
  8412 ;;		line 4 in file "C:\Program Files\Microchip\xc8\v2.40\pic\sources\c90\common\strncmp.c"
  8413 ;; Parameters:    Size  Location     Type
  8414 ;;  s1              1    wreg     PTR const unsigned char 
  8415 ;;		 -> change_password@pwd(9), login@npasswd(4), 
  8416 ;;  s2              1    3[COMMON] PTR const unsigned char 
  8417 ;;		 -> change_password@pwd(9), login@spasswd(4), 
  8418 ;;  len             2    4[COMMON] unsigned int 
  8419 ;; Auto vars:     Size  Location     Type
  8420 ;;  s1              1    2[BANK0 ] PTR const unsigned char 
  8421 ;;		 -> change_password@pwd(9), login@npasswd(4), 
  8422 ;; Return value:  Size  Location     Type
  8423 ;;                  2    3[COMMON] int 
  8424 ;; Registers used:
  8425 ;;		wreg, fsr0l, fsr0h, status,2, status,0
  8426 ;; Tracked objects:
  8427 ;;		On entry : 0/0
  8428 ;;		On exit  : 0/0
  8429 ;;		Unchanged: 0/0
  8430 ;; Data sizes:     COMMON   BANK0   BANK1   BANK3   BANK2
  8431 ;;      Params:         3       0       0       0       0
  8432 ;;      Locals:         0       1       0       0       0
  8433 ;;      Temps:          0       2       0       0       0
  8434 ;;      Totals:         3       3       0       0       0
  8435 ;;Total ram usage:        6 bytes
  8436 ;; Hardware stack levels used: 1
  8437 ;; Hardware stack levels required when called: 1
  8438 ;; This function calls:
  8439 ;;		Nothing
  8440 ;; This function is called by:
  8441 ;;		_login
  8442 ;;		_change_password
  8443 ;; This function uses a non-reentrant model
  8444 ;;
  8445                           
  8446     09BC                     _strncmp:	
  8447                           ;psect for function _strncmp
  8448                           
  8449                           
  8450                           ;incstack = 0
  8451                           ; Regs used in _strncmp: [wreg-fsr0h+status,2+status,0]
  8452                           ;strncmp@s1 stored from wreg
  8453     09BC  1283               	bcf	3,5	;RP0=0, select bank0
  8454     09BD  1303               	bcf	3,6	;RP1=0, select bank0
  8455     09BE  00A2               	movwf	strncmp@s1
  8456     09BF                     l3621:
  8457     09BF  29EB               	goto	l1057
  8458     09C0                     l3623:
  8459     09C0  0822               	movf	strncmp@s1,w
  8460     09C1  0084               	movwf	4
  8461     09C2  1383               	bcf	3,7	;select IRP bank0
  8462     09C3  0800               	movf	0,w
  8463     09C4  1903               	btfsc	3,2
  8464     09C5  29C7               	goto	u3101
  8465     09C6  29C8               	goto	u3100
  8466     09C7                     u3101:
  8467     09C7  29D4               	goto	l3627
  8468     09C8                     u3100:
  8469     09C8                     l3625:
  8470     09C8  0873               	movf	strncmp@s2,w
  8471     09C9  0084               	movwf	4
  8472     09CA  0800               	movf	0,w
  8473     09CB  00A0               	movwf	??_strncmp
  8474     09CC  0822               	movf	strncmp@s1,w
  8475     09CD  0084               	movwf	4
  8476     09CE  0800               	movf	0,w
  8477     09CF  0620               	xorwf	??_strncmp,w
  8478     09D0  1903               	skipnz
  8479     09D1  29D3               	goto	u3111
  8480     09D2  29D4               	goto	u3110
  8481     09D3                     u3111:
  8482     09D3  29E3               	goto	l3631
  8483     09D4                     u3110:
  8484     09D4                     l3627:
  8485     09D4  0873               	movf	strncmp@s2,w
  8486     09D5  0084               	movwf	4
  8487     09D6  0800               	movf	0,w
  8488     09D7  00A0               	movwf	??_strncmp
  8489     09D8  0822               	movf	strncmp@s1,w
  8490     09D9  0084               	movwf	4
  8491     09DA  0800               	movf	0,w
  8492     09DB  00A1               	movwf	??_strncmp+1
  8493     09DC  0820               	movf	??_strncmp,w
  8494     09DD  0221               	subwf	??_strncmp+1,w
  8495     09DE  00F3               	movwf	?_strncmp
  8496     09DF  01F4               	clrf	?_strncmp+1
  8497     09E0  1C03               	skipc
  8498     09E1  03F4               	decf	?_strncmp+1,f
  8499     09E2  29FB               	goto	l1062
  8500     09E3                     l3631:
  8501     09E3  3001               	movlw	1
  8502     09E4  00A0               	movwf	??_strncmp
  8503     09E5  0820               	movf	??_strncmp,w
  8504     09E6  07A2               	addwf	strncmp@s1,f
  8505     09E7  3001               	movlw	1
  8506     09E8  00A0               	movwf	??_strncmp
  8507     09E9  0820               	movf	??_strncmp,w
  8508     09EA  07F3               	addwf	strncmp@s2,f
  8509     09EB                     l1057:
  8510     09EB  3001               	movlw	1
  8511     09EC  02F4               	subwf	strncmp@len,f
  8512     09ED  3000               	movlw	0
  8513     09EE  1C03               	skipc
  8514     09EF  03F5               	decf	strncmp@len+1,f
  8515     09F0  02F5               	subwf	strncmp@len+1,f
  8516     09F1  0A74               	incf	strncmp@len,w
  8517     09F2  1D03               	skipz
  8518     09F3  29F8               	goto	u3121
  8519     09F4  0A75               	incf	strncmp@len+1,w
  8520     09F5  1D03               	btfss	3,2
  8521     09F6  29F8               	goto	u3121
  8522     09F7  29F9               	goto	u3120
  8523     09F8                     u3121:
  8524     09F8  29C0               	goto	l3623
  8525     09F9                     u3120:
  8526     09F9                     l3633:
  8527     09F9  01F3               	clrf	?_strncmp
  8528     09FA  01F4               	clrf	?_strncmp+1
  8529     09FB                     l1062:
  8530     09FB  0008               	return
  8531     09FC                     __end_of_strncmp:
  8532                           
  8533                           	psect	text40
  8534     17D3                     __ptext40:	
  8535 ;; *************** function _eeprom_write *****************
  8536 ;; Defined at:
  8537 ;;		line 6 in file "C:\Program Files\Microchip\xc8\v2.40\pic\sources\c90\pic\__eewrite.c"
  8538 ;; Parameters:    Size  Location     Type
  8539 ;;  addr            1    wreg     unsigned char 
  8540 ;;  value           1    3[COMMON] unsigned char 
  8541 ;; Auto vars:     Size  Location     Type
  8542 ;;  addr            1    5[COMMON] unsigned char 
  8543 ;; Return value:  Size  Location     Type
  8544 ;;                  1    wreg      void 
  8545 ;; Registers used:
  8546 ;;		wreg, status,2, status,0
  8547 ;; Tracked objects:
  8548 ;;		On entry : 0/0
  8549 ;;		On exit  : 0/0
  8550 ;;		Unchanged: 0/0
  8551 ;; Data sizes:     COMMON   BANK0   BANK1   BANK3   BANK2
  8552 ;;      Params:         1       0       0       0       0
  8553 ;;      Locals:         1       0       0       0       0
  8554 ;;      Temps:          1       0       0       0       0
  8555 ;;      Totals:         3       0       0       0       0
  8556 ;;Total ram usage:        3 bytes
  8557 ;; Hardware stack levels used: 1
  8558 ;; Hardware stack levels required when called: 1
  8559 ;; This function calls:
  8560 ;;		Nothing
  8561 ;; This function is called by:
  8562 ;;		_change_password
  8563 ;; This function uses a non-reentrant model
  8564 ;;
  8565                           
  8566     17D3                     _eeprom_write:	
  8567                           ;psect for function _eeprom_write
  8568                           
  8569                           
  8570                           ;incstack = 0
  8571                           ; Regs used in _eeprom_write: [wreg+status,2+status,0]
  8572                           ;eeprom_write@addr stored from wreg
  8573     17D3  00F5               	movwf	eeprom_write@addr
  8574     17D4                     l589:	
  8575                           ;C:\Program Files\Microchip\xc8\v2.40\pic\sources\c90\pic\__eewrite.c: 6: eeprom_write(u
      +                          nsigned char addr, unsigned char value);C:\Program Files\Microchip\xc8\v2.40\pic\sources
      +                          \c90\pic\__eewrite.c: 7: {;C:\Program Files\Microchip\xc8\v2.40\pic\sources\c90\pic\__ee
      +                          write.c: 8:  do{ while (EECON1bits.WR) { continue; } EEADR = (addr); EEDATA = (value); E
      +                          ECON1 &= 0x3F; STATUSbits.CARRY = 0; if (INTCONbits.GIE) { STATUSbits.CARRY = 1; } INTCO
      +                          Nbits.GIE = 0; EECON1bits.WREN = 1; EECON2 = 0x55; EECON2 = 0xAA; EECON1bits.WR = 1; EEC
      +                          ON1bits.WREN = 0; if (STATUSbits.CARRY) { INTCONbits.GIE = 1; } } while (0);
  8576                           
  8577     17D4                     l590:
  8578     17D4  1683               	bsf	3,5	;RP0=1, select bank3
  8579     17D5  1703               	bsf	3,6	;RP1=1, select bank3
  8580     17D6  188C               	btfsc	12,1	;volsfr
  8581     17D7  2FD9               	goto	u3131
  8582     17D8  2FDA               	goto	u3130
  8583     17D9                     u3131:
  8584     17D9  2FD4               	goto	l590
  8585     17DA                     u3130:
  8586     17DA                     l3637:
  8587     17DA  0875               	movf	eeprom_write@addr,w
  8588     17DB  1283               	bcf	3,5	;RP0=0, select bank2
  8589     17DC  1703               	bsf	3,6	;RP1=1, select bank2
  8590     17DD  008D               	movwf	13	;volatile
  8591     17DE  0873               	movf	eeprom_write@value,w
  8592     17DF  008C               	movwf	12	;volatile
  8593     17E0                     l3639:
  8594     17E0  303F               	movlw	63
  8595     17E1  00F4               	movwf	??_eeprom_write
  8596     17E2  0874               	movf	??_eeprom_write,w
  8597     17E3  1683               	bsf	3,5	;RP0=1, select bank3
  8598     17E4  1703               	bsf	3,6	;RP1=1, select bank3
  8599     17E5  058C               	andwf	12,f	;volsfr
  8600     17E6                     l3641:
  8601     17E6  1283               	bcf	3,5	;RP0=0, select bank0
  8602     17E7  1303               	bcf	3,6	;RP1=0, select bank0
  8603     17E8  1003               	bcf	3,0	;volatile
  8604     17E9                     l3643:
  8605     17E9  1F8B               	btfss	11,7	;volatile
  8606     17EA  2FEC               	goto	u3141
  8607     17EB  2FED               	goto	u3140
  8608     17EC                     u3141:
  8609     17EC  2FEE               	goto	l593
  8610     17ED                     u3140:
  8611     17ED                     l3645:
  8612     17ED  1403               	bsf	3,0	;volatile
  8613     17EE                     l593:
  8614     17EE  138B               	bcf	11,7	;volatile
  8615     17EF  1683               	bsf	3,5	;RP0=1, select bank3
  8616     17F0  1703               	bsf	3,6	;RP1=1, select bank3
  8617     17F1  150C               	bsf	12,2	;volsfr
  8618     17F2                     l3647:
  8619     17F2  3055               	movlw	85
  8620     17F3  008D               	movwf	13	;volsfr
  8621     17F4  30AA               	movlw	170
  8622     17F5  008D               	movwf	13	;volsfr
  8623     17F6                     l3649:
  8624     17F6  148C               	bsf	12,1	;volsfr
  8625     17F7                     l3651:
  8626     17F7  110C               	bcf	12,2	;volsfr
  8627     17F8                     l3653:
  8628     17F8  1283               	bcf	3,5	;RP0=0, select bank0
  8629     17F9  1303               	bcf	3,6	;RP1=0, select bank0
  8630     17FA  1C03               	btfss	3,0	;volatile
  8631     17FB  2FFD               	goto	u3151
  8632     17FC  2FFE               	goto	u3150
  8633     17FD                     u3151:
  8634     17FD  2FFF               	goto	l596
  8635     17FE                     u3150:
  8636     17FE                     l3655:
  8637     17FE  178B               	bsf	11,7	;volatile
  8638     17FF                     l596:
  8639     17FF  0008               	return
  8640     1800                     __end_of_eeprom_write:
  8641                           
  8642                           	psect	text41
  8643     1635                     __ptext41:	
  8644 ;; *************** function _clear_screen *****************
  8645 ;; Defined at:
  8646 ;;		line 173 in file "car_black_box_def.c"
  8647 ;; Parameters:    Size  Location     Type
  8648 ;;		None
  8649 ;; Auto vars:     Size  Location     Type
  8650 ;;		None
  8651 ;; Return value:  Size  Location     Type
  8652 ;;                  1    wreg      void 
  8653 ;; Registers used:
  8654 ;;		wreg, status,2, status,0, pclath, cstack
  8655 ;; Tracked objects:
  8656 ;;		On entry : 0/0
  8657 ;;		On exit  : 0/0
  8658 ;;		Unchanged: 0/0
  8659 ;; Data sizes:     COMMON   BANK0   BANK1   BANK3   BANK2
  8660 ;;      Params:         0       0       0       0       0
  8661 ;;      Locals:         0       0       0       0       0
  8662 ;;      Temps:          0       2       0       0       0
  8663 ;;      Totals:         0       2       0       0       0
  8664 ;;Total ram usage:        2 bytes
  8665 ;; Hardware stack levels used: 1
  8666 ;; Hardware stack levels required when called: 2
  8667 ;; This function calls:
  8668 ;;		_clcd_write
  8669 ;; This function is called by:
  8670 ;;		_main
  8671 ;;		_login
  8672 ;;		_login_menu
  8673 ;;		_change_password
  8674 ;; This function uses a non-reentrant model
  8675 ;;
  8676                           
  8677     1635                     _clear_screen:	
  8678                           ;psect for function _clear_screen
  8679                           
  8680     1635                     l3567:	
  8681                           ;incstack = 0
  8682                           ; Regs used in _clear_screen: [wreg+status,2+status,0+pclath+cstack]
  8683                           
  8684                           
  8685                           ;car_black_box_def.c: 175:     clcd_write(0x01, 0);
  8686     1635  01F3               	clrf	clcd_write@mode
  8687     1636  3001               	movlw	1
  8688     1637  160A  118A  26EF  160A  118A  	fcall	_clcd_write
  8689     163C                     l3569:
  8690                           
  8691                           ;car_black_box_def.c: 176:     _delay((unsigned long)((500)*(20000000/4000000.0)));
  8692     163C  3004               	movlw	4
  8693     163D  1283               	bcf	3,5	;RP0=0, select bank0
  8694     163E  1303               	bcf	3,6	;RP1=0, select bank0
  8695     163F  00A2               	movwf	??_clear_screen+1
  8696     1640  303D               	movlw	61
  8697     1641  00A1               	movwf	??_clear_screen
  8698     1642                     u4367:
  8699     1642  0BA1               	decfsz	??_clear_screen,f
  8700     1643  2E42               	goto	u4367
  8701     1644  0BA2               	decfsz	??_clear_screen+1,f
  8702     1645  2E42               	goto	u4367
  8703     1646                     l340:
  8704     1646  0008               	return
  8705     1647                     __end_of_clear_screen:
  8706                           
  8707                           	psect	text42
  8708     166E                     __ptext42:	
  8709 ;; *************** function _clcd_putch *****************
  8710 ;; Defined at:
  8711 ;;		line 49 in file "clcd.c"
  8712 ;; Parameters:    Size  Location     Type
  8713 ;;  data            1    wreg     const unsigned char 
  8714 ;;  addr            1    8[BANK0 ] unsigned char 
  8715 ;; Auto vars:     Size  Location     Type
  8716 ;;  data            1    9[BANK0 ] const unsigned char 
  8717 ;; Return value:  Size  Location     Type
  8718 ;;                  1    wreg      void 
  8719 ;; Registers used:
  8720 ;;		wreg, status,2, status,0, pclath, cstack
  8721 ;; Tracked objects:
  8722 ;;		On entry : 0/0
  8723 ;;		On exit  : 0/0
  8724 ;;		Unchanged: 0/0
  8725 ;; Data sizes:     COMMON   BANK0   BANK1   BANK3   BANK2
  8726 ;;      Params:         0       1       0       0       0
  8727 ;;      Locals:         0       1       0       0       0
  8728 ;;      Temps:          0       0       0       0       0
  8729 ;;      Totals:         0       2       0       0       0
  8730 ;;Total ram usage:        2 bytes
  8731 ;; Hardware stack levels used: 1
  8732 ;; Hardware stack levels required when called: 2
  8733 ;; This function calls:
  8734 ;;		_clcd_write
  8735 ;; This function is called by:
  8736 ;;		_main
  8737 ;;		_display_time
  8738 ;;		_display_dash_board
  8739 ;;		_login
  8740 ;;		_login_menu
  8741 ;;		_view_log
  8742 ;;		_set_time
  8743 ;;		_change_password
  8744 ;; This function uses a non-reentrant model
  8745 ;;
  8746                           
  8747     166E                     _clcd_putch:	
  8748                           ;psect for function _clcd_putch
  8749                           
  8750                           
  8751                           ;incstack = 0
  8752                           ; Regs used in _clcd_putch: [wreg+status,2+status,0+pclath+cstack]
  8753                           ;clcd_putch@data stored from wreg
  8754     166E  1283               	bcf	3,5	;RP0=0, select bank0
  8755     166F  1303               	bcf	3,6	;RP1=0, select bank0
  8756     1670  00A9               	movwf	clcd_putch@data
  8757     1671                     l3457:
  8758                           
  8759                           ;clcd.c: 49: void clcd_putch(const char data, unsigned char addr);clcd.c: 50: {;clcd.c: 
      +                          51:     clcd_write(addr, 0);
  8760     1671  01F3               	clrf	clcd_write@mode
  8761     1672  0828               	movf	clcd_putch@addr,w
  8762     1673  160A  118A  26EF  160A  118A  	fcall	_clcd_write
  8763                           
  8764                           ;clcd.c: 52:     clcd_write(data, 1);
  8765     1678  01F3               	clrf	clcd_write@mode
  8766     1679  0AF3               	incf	clcd_write@mode,f
  8767     167A  1283               	bcf	3,5	;RP0=0, select bank0
  8768     167B  1303               	bcf	3,6	;RP1=0, select bank0
  8769     167C  0829               	movf	clcd_putch@data,w
  8770     167D  160A  118A  26EF  160A  118A  	fcall	_clcd_write
  8771     1682                     l224:
  8772     1682  0008               	return
  8773     1683                     __end_of_clcd_putch:
  8774                           
  8775                           	psect	text43
  8776     083C                     __ptext43:	
  8777 ;; *************** function _clcd_print *****************
  8778 ;; Defined at:
  8779 ;;		line 55 in file "clcd.c"
  8780 ;; Parameters:    Size  Location     Type
  8781 ;;  str             2    1[BANK0 ] PTR const unsigned char 
  8782 ;;		 -> STR_31(9), STR_30(17), STR_29(15), STR_28(17), 
  8783 ;;		 -> STR_27(17), STR_26(14), STR_25(15), STR_24(15), 
  8784 ;;		 -> STR_23(9), STR_22(15), STR_21(12), STR_20(15), 
  8785 ;;		 -> STR_19(20), STR_18(16), STR_17(17), STR_16(16), 
  8786 ;;		 -> STR_15(11), STR_14(13), STR_13(10), STR_12(9), 
  8787 ;;		 -> STR_11(10), STR_10(17), STR_9(16), main@event(3), 
  8788 ;;  addr            1    3[BANK0 ] unsigned char 
  8789 ;; Auto vars:     Size  Location     Type
  8790 ;;		None
  8791 ;; Return value:  Size  Location     Type
  8792 ;;                  1    wreg      void 
  8793 ;; Registers used:
  8794 ;;		wreg, fsr0l, fsr0h, status,2, status,0, btemp+1, pclath, cstack
  8795 ;; Tracked objects:
  8796 ;;		On entry : 0/0
  8797 ;;		On exit  : 0/0
  8798 ;;		Unchanged: 0/0
  8799 ;; Data sizes:     COMMON   BANK0   BANK1   BANK3   BANK2
  8800 ;;      Params:         0       3       0       0       0
  8801 ;;      Locals:         0       0       0       0       0
  8802 ;;      Temps:          0       0       0       0       0
  8803 ;;      Totals:         0       3       0       0       0
  8804 ;;Total ram usage:        3 bytes
  8805 ;; Hardware stack levels used: 1
  8806 ;; Hardware stack levels required when called: 2
  8807 ;; This function calls:
  8808 ;;		_clcd_write
  8809 ;; This function is called by:
  8810 ;;		_main
  8811 ;;		_display_dash_board
  8812 ;;		_login
  8813 ;;		_login_menu
  8814 ;;		_view_log
  8815 ;;		_clear_log
  8816 ;;		_change_password
  8817 ;; This function uses a non-reentrant model
  8818 ;;
  8819                           
  8820     083C                     _clcd_print:	
  8821                           ;psect for function _clcd_print
  8822                           
  8823     083C                     l3571:	
  8824                           ;incstack = 0
  8825                           ; Regs used in _clcd_print: [wreg-fsr0h+status,2+status,0+btemp+1+pclath+cstack]
  8826                           
  8827                           
  8828                           ;clcd.c: 55: void clcd_print(const char *str, unsigned char addr);clcd.c: 56: {;clcd.c: 
      +                          57:     clcd_write(addr, 0);
  8829     083C  01F3               	clrf	clcd_write@mode
  8830     083D  1283               	bcf	3,5	;RP0=0, select bank0
  8831     083E  1303               	bcf	3,6	;RP1=0, select bank0
  8832     083F  0823               	movf	clcd_print@addr,w
  8833     0840  160A  118A  26EF  120A  158A  	fcall	_clcd_write
  8834                           
  8835                           ;clcd.c: 59:     while (*str != '\0')
  8836     0845  285E               	goto	l3577
  8837     0846                     l3573:
  8838                           
  8839                           ;clcd.c: 60:     {;clcd.c: 61:         clcd_write(*str, 1);
  8840     0846  01F3               	clrf	clcd_write@mode
  8841     0847  0AF3               	incf	clcd_write@mode,f
  8842     0848  0822               	movf	clcd_print@str+1,w
  8843     0849  00FF               	movwf	btemp+1
  8844     084A  0821               	movf	clcd_print@str,w
  8845     084B  0084               	movwf	4
  8846     084C  160A  118A  2000  120A  158A  	fcall	stringtab
  8847     0851  160A  118A  26EF  120A  158A  	fcall	_clcd_write
  8848     0856                     l3575:
  8849                           
  8850                           ;clcd.c: 62:         str++;
  8851     0856  3001               	movlw	1
  8852     0857  1283               	bcf	3,5	;RP0=0, select bank0
  8853     0858  1303               	bcf	3,6	;RP1=0, select bank0
  8854     0859  07A1               	addwf	clcd_print@str,f
  8855     085A  1803               	skipnc
  8856     085B  0AA2               	incf	clcd_print@str+1,f
  8857     085C  3000               	movlw	0
  8858     085D  07A2               	addwf	clcd_print@str+1,f
  8859     085E                     l3577:
  8860                           
  8861                           ;clcd.c: 59:     while (*str != '\0')
  8862     085E  1283               	bcf	3,5	;RP0=0, select bank0
  8863     085F  1303               	bcf	3,6	;RP1=0, select bank0
  8864     0860  0822               	movf	clcd_print@str+1,w
  8865     0861  00FF               	movwf	btemp+1
  8866     0862  0821               	movf	clcd_print@str,w
  8867     0863  0084               	movwf	4
  8868     0864  160A  118A  2000  120A  158A  	fcall	stringtab
  8869     0869  3A00               	xorlw	0
  8870     086A  1D03               	skipz
  8871     086B  286D               	goto	u3031
  8872     086C  286E               	goto	u3030
  8873     086D                     u3031:
  8874     086D  2846               	goto	l3573
  8875     086E                     u3030:
  8876     086E                     l230:
  8877     086E  0008               	return
  8878     086F                     __end_of_clcd_print:
  8879                           
  8880                           	psect	text44
  8881     16EF                     __ptext44:	
  8882 ;; *************** function _clcd_write *****************
  8883 ;; Defined at:
  8884 ;;		line 4 in file "clcd.c"
  8885 ;; Parameters:    Size  Location     Type
  8886 ;;  byte            1    wreg     unsigned char 
  8887 ;;  mode            1    3[COMMON] unsigned char 
  8888 ;; Auto vars:     Size  Location     Type
  8889 ;;  byte            1    0[BANK0 ] unsigned char 
  8890 ;; Return value:  Size  Location     Type
  8891 ;;                  1    wreg      void 
  8892 ;; Registers used:
  8893 ;;		wreg
  8894 ;; Tracked objects:
  8895 ;;		On entry : 0/0
  8896 ;;		On exit  : 0/0
  8897 ;;		Unchanged: 0/0
  8898 ;; Data sizes:     COMMON   BANK0   BANK1   BANK3   BANK2
  8899 ;;      Params:         1       0       0       0       0
  8900 ;;      Locals:         0       1       0       0       0
  8901 ;;      Temps:          2       0       0       0       0
  8902 ;;      Totals:         3       1       0       0       0
  8903 ;;Total ram usage:        4 bytes
  8904 ;; Hardware stack levels used: 1
  8905 ;; Hardware stack levels required when called: 1
  8906 ;; This function calls:
  8907 ;;		Nothing
  8908 ;; This function is called by:
  8909 ;;		_main
  8910 ;;		_init_display_controller
  8911 ;;		_clcd_putch
  8912 ;;		_clcd_print
  8913 ;;		_login
  8914 ;;		_clear_screen
  8915 ;;		_change_password
  8916 ;; This function uses a non-reentrant model
  8917 ;;
  8918                           
  8919     16EF                     _clcd_write:	
  8920                           ;psect for function _clcd_write
  8921                           
  8922                           
  8923                           ;incstack = 0
  8924                           ; Regs used in _clcd_write: [wreg]
  8925                           ;clcd_write@byte stored from wreg
  8926     16EF  1283               	bcf	3,5	;RP0=0, select bank0
  8927     16F0  1303               	bcf	3,6	;RP1=0, select bank0
  8928     16F1  00A0               	movwf	clcd_write@byte
  8929     16F2                     l3431:
  8930                           
  8931                           ;clcd.c: 4: void clcd_write(unsigned char byte, unsigned char mode);clcd.c: 5: {;clcd.c:
      +                           6:     RE2 = mode;
  8932     16F2  1873               	btfsc	clcd_write@mode,0
  8933     16F3  2EF5               	goto	u2871
  8934     16F4  2EF9               	goto	u2870
  8935     16F5                     u2871:
  8936     16F5  1283               	bcf	3,5	;RP0=0, select bank0
  8937     16F6  1303               	bcf	3,6	;RP1=0, select bank0
  8938     16F7  1509               	bsf	9,2	;volatile
  8939     16F8  2EFC               	goto	u2884
  8940     16F9                     u2870:
  8941     16F9  1283               	bcf	3,5	;RP0=0, select bank0
  8942     16FA  1303               	bcf	3,6	;RP1=0, select bank0
  8943     16FB  1109               	bcf	9,2	;volatile
  8944     16FC                     u2884:
  8945     16FC                     l3433:
  8946                           
  8947                           ;clcd.c: 7:     PORTD = byte;
  8948     16FC  0820               	movf	clcd_write@byte,w
  8949     16FD  0088               	movwf	8	;volatile
  8950     16FE                     l3435:
  8951                           
  8952                           ;clcd.c: 9:     RE1 = 1;
  8953     16FE  1489               	bsf	9,1	;volatile
  8954                           
  8955                           ;clcd.c: 10:     _delay((unsigned long)((100)*(20000000/4000000.0)));
  8956     16FF  30A6               	movlw	166
  8957     1700  00F4               	movwf	??_clcd_write
  8958     1701                     u4377:
  8959     1701  0BF4               	decfsz	??_clcd_write,f
  8960     1702  2F01               	goto	u4377
  8961     1703  0000               	nop
  8962     1704                     l3437:
  8963                           
  8964                           ;clcd.c: 11:     RE1 = 0;
  8965     1704  1283               	bcf	3,5	;RP0=0, select bank0
  8966     1705  1303               	bcf	3,6	;RP1=0, select bank0
  8967     1706  1089               	bcf	9,1	;volatile
  8968                           
  8969                           ;clcd.c: 13:     _delay((unsigned long)((4100)*(20000000/4000000.0)));
  8970     1707  301B               	movlw	27
  8971     1708  00F5               	movwf	??_clcd_write+1
  8972     1709  309E               	movlw	158
  8973     170A  00F4               	movwf	??_clcd_write
  8974     170B                     u4387:
  8975     170B  0BF4               	decfsz	??_clcd_write,f
  8976     170C  2F0B               	goto	u4387
  8977     170D  0BF5               	decfsz	??_clcd_write+1,f
  8978     170E  2F0B               	goto	u4387
  8979     170F  0000               	nop
  8980     1710                     l215:
  8981     1710  0008               	return
  8982     1711                     __end_of_clcd_write:
  8983                           
  8984                           	psect	text45
  8985     09FC                     __ptext45:	
  8986 ;; *************** function ___lwdiv *****************
  8987 ;; Defined at:
  8988 ;;		line 5 in file "C:\Program Files\Microchip\xc8\v2.40\pic\sources\c90\common\lwdiv.c"
  8989 ;; Parameters:    Size  Location     Type
  8990 ;;  divisor         2    2[BANK0 ] unsigned int 
  8991 ;;  dividend        2    4[BANK0 ] unsigned int 
  8992 ;; Auto vars:     Size  Location     Type
  8993 ;;  quotient        2    7[BANK0 ] unsigned int 
  8994 ;;  counter         1    6[BANK0 ] unsigned char 
  8995 ;; Return value:  Size  Location     Type
  8996 ;;                  2    2[BANK0 ] unsigned int 
  8997 ;; Registers used:
  8998 ;;		wreg, status,2, status,0
  8999 ;; Tracked objects:
  9000 ;;		On entry : 0/0
  9001 ;;		On exit  : 0/0
  9002 ;;		Unchanged: 0/0
  9003 ;; Data sizes:     COMMON   BANK0   BANK1   BANK3   BANK2
  9004 ;;      Params:         0       4       0       0       0
  9005 ;;      Locals:         0       3       0       0       0
  9006 ;;      Temps:          1       0       0       0       0
  9007 ;;      Totals:         1       7       0       0       0
  9008 ;;Total ram usage:        8 bytes
  9009 ;; Hardware stack levels used: 1
  9010 ;; Hardware stack levels required when called: 1
  9011 ;; This function calls:
  9012 ;;		Nothing
  9013 ;; This function is called by:
  9014 ;;		_main
  9015 ;; This function uses a non-reentrant model
  9016 ;;
  9017                           
  9018     09FC                     ___lwdiv:	
  9019                           ;psect for function ___lwdiv
  9020                           
  9021     09FC                     l4197:	
  9022                           ;incstack = 0
  9023                           ; Regs used in ___lwdiv: [wreg+status,2+status,0]
  9024                           
  9025     09FC  1283               	bcf	3,5	;RP0=0, select bank0
  9026     09FD  1303               	bcf	3,6	;RP1=0, select bank0
  9027     09FE  01A7               	clrf	___lwdiv@quotient
  9028     09FF  01A8               	clrf	___lwdiv@quotient+1
  9029     0A00                     l4199:
  9030     0A00  0822               	movf	___lwdiv@divisor,w
  9031     0A01  0423               	iorwf	___lwdiv@divisor+1,w
  9032     0A02  1903               	btfsc	3,2
  9033     0A03  2A05               	goto	u3991
  9034     0A04  2A06               	goto	u3990
  9035     0A05                     u3991:
  9036     0A05  2A3D               	goto	l4219
  9037     0A06                     u3990:
  9038     0A06                     l4201:
  9039     0A06  01A6               	clrf	___lwdiv@counter
  9040     0A07  0AA6               	incf	___lwdiv@counter,f
  9041     0A08  2A14               	goto	l4207
  9042     0A09                     l4203:
  9043     0A09  3001               	movlw	1
  9044     0A0A                     u4005:
  9045     0A0A  1003               	clrc
  9046     0A0B  0DA2               	rlf	___lwdiv@divisor,f
  9047     0A0C  0DA3               	rlf	___lwdiv@divisor+1,f
  9048     0A0D  3EFF               	addlw	-1
  9049     0A0E  1D03               	skipz
  9050     0A0F  2A0A               	goto	u4005
  9051     0A10                     l4205:
  9052     0A10  3001               	movlw	1
  9053     0A11  00F5               	movwf	??___lwdiv
  9054     0A12  0875               	movf	??___lwdiv,w
  9055     0A13  07A6               	addwf	___lwdiv@counter,f
  9056     0A14                     l4207:
  9057     0A14  1FA3               	btfss	___lwdiv@divisor+1,7
  9058     0A15  2A17               	goto	u4011
  9059     0A16  2A18               	goto	u4010
  9060     0A17                     u4011:
  9061     0A17  2A09               	goto	l4203
  9062     0A18                     u4010:
  9063     0A18                     l4209:
  9064     0A18  3001               	movlw	1
  9065     0A19                     u4025:
  9066     0A19  1003               	clrc
  9067     0A1A  0DA7               	rlf	___lwdiv@quotient,f
  9068     0A1B  0DA8               	rlf	___lwdiv@quotient+1,f
  9069     0A1C  3EFF               	addlw	-1
  9070     0A1D  1D03               	skipz
  9071     0A1E  2A19               	goto	u4025
  9072     0A1F  0823               	movf	___lwdiv@divisor+1,w
  9073     0A20  0225               	subwf	___lwdiv@dividend+1,w
  9074     0A21  1D03               	skipz
  9075     0A22  2A25               	goto	u4035
  9076     0A23  0822               	movf	___lwdiv@divisor,w
  9077     0A24  0224               	subwf	___lwdiv@dividend,w
  9078     0A25                     u4035:
  9079     0A25  1C03               	skipc
  9080     0A26  2A28               	goto	u4031
  9081     0A27  2A29               	goto	u4030
  9082     0A28                     u4031:
  9083     0A28  2A30               	goto	l4215
  9084     0A29                     u4030:
  9085     0A29                     l4211:
  9086     0A29  0822               	movf	___lwdiv@divisor,w
  9087     0A2A  02A4               	subwf	___lwdiv@dividend,f
  9088     0A2B  0823               	movf	___lwdiv@divisor+1,w
  9089     0A2C  1C03               	skipc
  9090     0A2D  03A5               	decf	___lwdiv@dividend+1,f
  9091     0A2E  02A5               	subwf	___lwdiv@dividend+1,f
  9092     0A2F                     l4213:
  9093     0A2F  1427               	bsf	___lwdiv@quotient,0
  9094     0A30                     l4215:
  9095     0A30  3001               	movlw	1
  9096     0A31                     u4045:
  9097     0A31  1003               	clrc
  9098     0A32  0CA3               	rrf	___lwdiv@divisor+1,f
  9099     0A33  0CA2               	rrf	___lwdiv@divisor,f
  9100     0A34  3EFF               	addlw	-1
  9101     0A35  1D03               	skipz
  9102     0A36  2A31               	goto	u4045
  9103     0A37                     l4217:
  9104     0A37  3001               	movlw	1
  9105     0A38  02A6               	subwf	___lwdiv@counter,f
  9106     0A39  1D03               	btfss	3,2
  9107     0A3A  2A3C               	goto	u4051
  9108     0A3B  2A3D               	goto	u4050
  9109     0A3C                     u4051:
  9110     0A3C  2A18               	goto	l4209
  9111     0A3D                     u4050:
  9112     0A3D                     l4219:
  9113     0A3D  0828               	movf	___lwdiv@quotient+1,w
  9114     0A3E  00A3               	movwf	?___lwdiv+1
  9115     0A3F  0827               	movf	___lwdiv@quotient,w
  9116     0A40  00A2               	movwf	?___lwdiv
  9117     0A41                     l872:
  9118     0A41  0008               	return
  9119     0A42                     __end_of___lwdiv:
  9120                           
  9121                           	psect	text46
  9122     0D35                     __ptext46:	
  9123 ;; *************** function _isr *****************
  9124 ;; Defined at:
  9125 ;;		line 6 in file "isr.c"
  9126 ;; Parameters:    Size  Location     Type
  9127 ;;		None
  9128 ;; Auto vars:     Size  Location     Type
  9129 ;;		None
  9130 ;; Return value:  Size  Location     Type
  9131 ;;                  1    wreg      void 
  9132 ;; Registers used:
  9133 ;;		wreg, status,2, status,0, btemp+1
  9134 ;; Tracked objects:
  9135 ;;		On entry : 0/0
  9136 ;;		On exit  : 0/0
  9137 ;;		Unchanged: 0/0
  9138 ;; Data sizes:     COMMON   BANK0   BANK1   BANK3   BANK2
  9139 ;;      Params:         0       0       0       0       0
  9140 ;;      Locals:         0       0       0       0       0
  9141 ;;      Temps:          3       0       0       0       0
  9142 ;;      Totals:         3       0       0       0       0
  9143 ;;Total ram usage:        3 bytes
  9144 ;; Hardware stack levels used: 1
  9145 ;; This function calls:
  9146 ;;		Nothing
  9147 ;; This function is called by:
  9148 ;;		Interrupt level 1
  9149 ;; This function uses a non-reentrant model
  9150 ;;
  9151                           
  9152     0D35                     _isr:	
  9153                           ;psect for function _isr
  9154                           
  9155     0D35                     i1l3289:
  9156                           
  9157                           ;isr.c: 8:     static unsigned int count = 0,count1=0;;isr.c: 10:     if (TMR2IF == 1)
  9158     0D35  1283               	bcf	3,5	;RP0=0, select bank0
  9159     0D36  1303               	bcf	3,6	;RP1=0, select bank0
  9160     0D37  1C8C               	btfss	12,1	;volatile
  9161     0D38  2D3A               	goto	u277_21
  9162     0D39  2D3B               	goto	u277_20
  9163     0D3A                     u277_21:
  9164     0D3A  2DA4               	goto	i1l490
  9165     0D3B                     u277_20:
  9166     0D3B                     i1l3291:
  9167                           
  9168                           ;isr.c: 11:     {;isr.c: 13:         if (++count == 1250)
  9169     0D3B  3001               	movlw	1
  9170     0D3C  07F8               	addwf	isr@count,f
  9171     0D3D  1803               	skipnc
  9172     0D3E  0AF9               	incf	isr@count+1,f
  9173     0D3F  3000               	movlw	0
  9174     0D40  07F9               	addwf	isr@count+1,f
  9175     0D41  30E2               	movlw	226
  9176     0D42  0678               	xorwf	isr@count,w
  9177     0D43  3004               	movlw	4
  9178     0D44  1903               	skipnz
  9179     0D45  0679               	xorwf	isr@count+1,w
  9180     0D46  1D03               	btfss	3,2
  9181     0D47  2D49               	goto	u278_21
  9182     0D48  2D4A               	goto	u278_20
  9183     0D49                     u278_21:
  9184     0D49  2D7F               	goto	i1l3305
  9185     0D4A                     u278_20:
  9186     0D4A                     i1l3293:
  9187                           
  9188                           ;isr.c: 14:         {;isr.c: 15:             count = 0;
  9189     0D4A  01F8               	clrf	isr@count
  9190     0D4B  01F9               	clrf	isr@count+1
  9191     0D4C                     i1l3295:
  9192                           
  9193                           ;isr.c: 16:             if(sec>0)
  9194     0D4C  0847               	movf	_sec+1,w
  9195     0D4D  3A80               	xorlw	128
  9196     0D4E  00FF               	movwf	btemp+1
  9197     0D4F  3080               	movlw	128
  9198     0D50  027F               	subwf	btemp+1,w
  9199     0D51  1D03               	skipz
  9200     0D52  2D55               	goto	u279_25
  9201     0D53  3001               	movlw	1
  9202     0D54  0246               	subwf	_sec,w
  9203     0D55                     u279_25:
  9204     0D55  1C03               	skipc
  9205     0D56  2D58               	goto	u279_21
  9206     0D57  2D59               	goto	u279_20
  9207     0D58                     u279_21:
  9208     0D58  2D62               	goto	i1l3299
  9209     0D59                     u279_20:
  9210     0D59                     i1l3297:
  9211                           
  9212                           ;isr.c: 17:             {;isr.c: 18:                 sec--;
  9213     0D59  30FF               	movlw	255
  9214     0D5A  1283               	bcf	3,5	;RP0=0, select bank0
  9215     0D5B  1303               	bcf	3,6	;RP1=0, select bank0
  9216     0D5C  07C6               	addwf	_sec,f
  9217     0D5D  1803               	skipnc
  9218     0D5E  0AC7               	incf	_sec+1,f
  9219     0D5F  30FF               	movlw	255
  9220     0D60  07C7               	addwf	_sec+1,f
  9221                           
  9222                           ;isr.c: 19:             }
  9223     0D61  2D7F               	goto	i1l3305
  9224     0D62                     i1l3299:
  9225     0D62  1283               	bcf	3,5	;RP0=0, select bank0
  9226     0D63  1303               	bcf	3,6	;RP1=0, select bank0
  9227     0D64  0846               	movf	_sec,w
  9228     0D65  0447               	iorwf	_sec+1,w
  9229     0D66  1D03               	btfss	3,2
  9230     0D67  2D69               	goto	u280_21
  9231     0D68  2D6A               	goto	u280_20
  9232     0D69                     u280_21:
  9233     0D69  2D7F               	goto	i1l3305
  9234     0D6A                     u280_20:
  9235     0D6A                     i1l3301:
  9236     0D6A  084D               	movf	_return_time+1,w
  9237     0D6B  3A80               	xorlw	128
  9238     0D6C  00FF               	movwf	btemp+1
  9239     0D6D  3080               	movlw	128
  9240     0D6E  027F               	subwf	btemp+1,w
  9241     0D6F  1D03               	skipz
  9242     0D70  2D73               	goto	u281_25
  9243     0D71  3001               	movlw	1
  9244     0D72  024C               	subwf	_return_time,w
  9245     0D73                     u281_25:
  9246     0D73  1C03               	skipc
  9247     0D74  2D76               	goto	u281_21
  9248     0D75  2D77               	goto	u281_20
  9249     0D76                     u281_21:
  9250     0D76  2D7F               	goto	i1l3305
  9251     0D77                     u281_20:
  9252     0D77                     i1l3303:
  9253                           
  9254                           ;isr.c: 21:             {;isr.c: 22:                 return_time--;
  9255     0D77  30FF               	movlw	255
  9256     0D78  1283               	bcf	3,5	;RP0=0, select bank0
  9257     0D79  1303               	bcf	3,6	;RP1=0, select bank0
  9258     0D7A  07CC               	addwf	_return_time,f
  9259     0D7B  1803               	skipnc
  9260     0D7C  0ACD               	incf	_return_time+1,f
  9261     0D7D  30FF               	movlw	255
  9262     0D7E  07CD               	addwf	_return_time+1,f
  9263     0D7F                     i1l3305:
  9264                           
  9265                           ;isr.c: 26:         if (++count1 == 750)
  9266     0D7F  3001               	movlw	1
  9267     0D80  07F6               	addwf	isr@count1,f
  9268     0D81  1803               	skipnc
  9269     0D82  0AF7               	incf	isr@count1+1,f
  9270     0D83  3000               	movlw	0
  9271     0D84  07F7               	addwf	isr@count1+1,f
  9272     0D85  30EE               	movlw	238
  9273     0D86  0676               	xorwf	isr@count1,w
  9274     0D87  3002               	movlw	2
  9275     0D88  1903               	skipnz
  9276     0D89  0677               	xorwf	isr@count1+1,w
  9277     0D8A  1D03               	btfss	3,2
  9278     0D8B  2D8D               	goto	u282_21
  9279     0D8C  2D8E               	goto	u282_20
  9280     0D8D                     u282_21:
  9281     0D8D  2DA1               	goto	i1l3313
  9282     0D8E                     u282_20:
  9283     0D8E                     i1l3307:
  9284                           
  9285                           ;isr.c: 27:         {;isr.c: 28:             count1=0;
  9286     0D8E  01F6               	clrf	isr@count1
  9287     0D8F  01F7               	clrf	isr@count1+1
  9288     0D90                     i1l3309:
  9289                           
  9290                           ;isr.c: 29:             if(tick++ == 60)
  9291     0D90  3001               	movlw	1
  9292     0D91  1283               	bcf	3,5	;RP0=0, select bank0
  9293     0D92  1303               	bcf	3,6	;RP1=0, select bank0
  9294     0D93  07CA               	addwf	_tick,f
  9295     0D94  1803               	skipnc
  9296     0D95  0ACB               	incf	_tick+1,f
  9297     0D96  3000               	movlw	0
  9298     0D97  07CB               	addwf	_tick+1,f
  9299     0D98  303D               	movlw	61
  9300     0D99  064A               	xorwf	_tick,w
  9301     0D9A  044B               	iorwf	_tick+1,w
  9302     0D9B  1D03               	btfss	3,2
  9303     0D9C  2D9E               	goto	u283_21
  9304     0D9D  2D9F               	goto	u283_20
  9305     0D9E                     u283_21:
  9306     0D9E  2DA1               	goto	i1l3313
  9307     0D9F                     u283_20:
  9308     0D9F                     i1l3311:
  9309                           
  9310                           ;isr.c: 30:             {;isr.c: 31:                 tick=0;
  9311     0D9F  01CA               	clrf	_tick
  9312     0DA0  01CB               	clrf	_tick+1
  9313     0DA1                     i1l3313:
  9314                           
  9315                           ;isr.c: 36:         TMR2IF = 0;
  9316     0DA1  1283               	bcf	3,5	;RP0=0, select bank0
  9317     0DA2  1303               	bcf	3,6	;RP1=0, select bank0
  9318     0DA3  108C               	bcf	12,1	;volatile
  9319     0DA4                     i1l490:
  9320     0DA4  0872               	movf	??_isr+2,w
  9321     0DA5  00FF               	movwf	btemp+1
  9322     0DA6  0871               	movf	??_isr+1,w
  9323     0DA7  008A               	movwf	10
  9324     0DA8  0E70               	swapf	??_isr,w
  9325     0DA9  0083               	movwf	3
  9326     0DAA  0EFE               	swapf	btemp,f
  9327     0DAB  0E7E               	swapf	btemp,w
  9328     0DAC  0009               	retfie
  9329     0DAD                     __end_of_isr:
  9330     007E                     btemp	set	126	;btemp
  9331     007E                     wtemp0	set	126
  9332                           
  9333                           	psect	intentry
  9334     0004                     __pintentry:	
  9335                           ;incstack = 0
  9336                           ; Regs used in _isr: [wreg+status,2+status,0+btemp+1]
  9337                           
  9338     0004                     interrupt_function:
  9339     007E                     saved_w	set	btemp
  9340     0004  00FE               	movwf	btemp
  9341     0005  0E03               	swapf	3,w
  9342     0006  00F0               	movwf	??_isr
  9343     0007  080A               	movf	10,w
  9344     0008  00F1               	movwf	??_isr+1
  9345     0009  087F               	movf	btemp+1,w
  9346     000A  00F2               	movwf	??_isr+2
  9347     000B  120A  158A  2D35   	ljmp	_isr
  9348                           
  9349                           	psect	config
  9350                           
  9351                           ;Config register CONFIG @ 0x2007
  9352                           ;	Oscillator Selection bits
  9353                           ;	FOSC = 0x3, unprogrammed default
  9354                           ;	Watchdog Timer Enable bit
  9355                           ;	WDTE = OFF, WDT disabled
  9356                           ;	Power-up Timer Enable bit
  9357                           ;	PWRTE = 0x1, unprogrammed default
  9358                           ;	Brown-out Reset Enable bit
  9359                           ;	BOREN = 0x1, unprogrammed default
  9360                           ;	Low-Voltage (Single-Supply) In-Circuit Serial Programming Enable bit
  9361                           ;	LVP = 0x1, unprogrammed default
  9362                           ;	Data EEPROM Memory Code Protection bit
  9363                           ;	CPD = 0x1, unprogrammed default
  9364                           ;	Flash Program Memory Write Enable bits
  9365                           ;	WRT = 0x3, unprogrammed default
  9366                           ;	In-Circuit Debugger Mode bit
  9367                           ;	DEBUG = 0x1, unprogrammed default
  9368                           ;	Flash Program Memory Code Protection bit
  9369                           ;	CP = 0x1, unprogrammed default
  9370     2007                     	org	8199
  9371     2007  3FFB               	dw	16379

Data Sizes:
    Strings     319
    Constant    0
    Data        29
    BSS         58
    Persistent  0
    Stack       0

Auto Spaces:
    Space          Size  Autos    Used
    COMMON           14      6      11
    BANK0            80     31      60
    BANK1            80     22      75
    BANK3            96      0       0
    BANK2            96      0       0

Pointer List with Targets:

    strncpy@from	PTR const unsigned char  size(1) Largest target is 7
		 -> time(BANK0[7]), main@event(BANK1[3]), 

    strncpy@to	PTR unsigned char  size(1) Largest target is 11
		 -> log(BANK1[11]), 

    strncpy@cp	PTR unsigned char  size(1) Largest target is 11
		 -> log(BANK1[11]), 

    strncmp@s2	PTR const unsigned char  size(1) Largest target is 9
		 -> change_password@pwd(BANK1[9]), login@spasswd(BANK1[4]), 

    strncmp@s1	PTR const unsigned char  size(1) Largest target is 9
		 -> change_password@pwd(BANK1[9]), login@npasswd(BANK1[4]), 

    strcpy@from	PTR const unsigned char  size(2) Largest target is 3
		 -> STR_8(CODE[3]), STR_6(CODE[3]), STR_5(CODE[3]), STR_4(CODE[3]), 
		 -> STR_3(CODE[3]), STR_2(CODE[3]), STR_1(CODE[3]), 

    strcpy@to	PTR unsigned char  size(1) Largest target is 3
		 -> main@event(BANK1[3]), 

    strcpy@cp	PTR unsigned char  size(1) Largest target is 3
		 -> main@event(BANK1[3]), 

    ext_eeprom_24C02_str_write@data	PTR unsigned char  size(2) Largest target is 11
		 -> log(BANK1[11]), STR_7(CODE[5]), 

    log_event@event	PTR unsigned char  size(1) Largest target is 3
		 -> main@event(BANK1[3]), 

    sp__strncpy	PTR unsigned char  size(1) Largest target is 11
		 -> log(BANK1[11]), 

    display_dash_board@event	PTR unsigned char  size(1) Largest target is 3
		 -> main@event(BANK1[3]), 

    menu	PTR unsigned char [5] size(2) Largest target is 16
		 -> STR_16(CODE[16]), STR_15(CODE[11]), STR_14(CODE[13]), STR_13(CODE[10]), 
		 -> STR_12(CODE[9]), 

    clcd_print@str	PTR const unsigned char  size(2) Largest target is 20
		 -> STR_31(CODE[9]), STR_30(CODE[17]), STR_29(CODE[15]), STR_28(CODE[17]), 
		 -> STR_27(CODE[17]), STR_26(CODE[14]), STR_25(CODE[15]), STR_24(CODE[15]), 
		 -> STR_23(CODE[9]), STR_22(CODE[15]), STR_21(CODE[12]), STR_20(CODE[15]), 
		 -> STR_19(CODE[20]), STR_18(CODE[16]), STR_17(CODE[17]), STR_16(CODE[16]), 
		 -> STR_15(CODE[11]), STR_14(CODE[13]), STR_13(CODE[10]), STR_12(CODE[9]), 
		 -> STR_11(CODE[10]), STR_10(CODE[17]), STR_9(CODE[16]), main@event(BANK1[3]), 

    sp__strcpy	PTR unsigned char  size(1) Largest target is 3
		 -> main@event(BANK1[3]), 

    main@gear	PTR unsigned char [6] size(2) Largest target is 3
		 -> STR_6(CODE[3]), STR_5(CODE[3]), STR_4(CODE[3]), STR_3(CODE[3]), 
		 -> STR_2(CODE[3]), STR_1(CODE[3]), 

    main@F1009	PTR unsigned char [6] size(2) Largest target is 3
		 -> STR_6(CODE[3]), STR_5(CODE[3]), STR_4(CODE[3]), STR_3(CODE[3]), 
		 -> STR_2(CODE[3]), STR_1(CODE[3]), 


Critical Paths under _main in COMMON

    _main->___lwdiv
    _main->_clcd_write
    _main->_strcpy
    _view_log->___awmod
    _login->___awmod
    _login->_clcd_write
    _login->_strncmp
    _ext_eeprom_24C02_read->_i2c_write
    _log_event->___awmod
    _log_event->_strncpy
    _ext_eeprom_24C02_byte_write->_i2c_write
    _init_i2c->___lldiv
    _write_ds1307->_i2c_write
    _init_display_controller->_clcd_write
    _display_dash_board->___awmod
    _read_ds1307->_i2c_write
    _change_password->_clcd_write
    _change_password->_eeprom_write
    _change_password->_strncmp
    _clear_screen->_clcd_write
    _clcd_putch->___awmod
    _clcd_putch->_clcd_write
    _clcd_print->_clcd_write
    ___lwdiv->_read_adc

Critical Paths under _isr in COMMON

    None.

Critical Paths under _main in BANK0

    _main->_view_log
    _view_log->_clcd_putch
    _set_time->_clcd_putch
    _login_menu->_clcd_putch
    _login->_clcd_putch
    _ext_eeprom_24C02_read->_i2c_write
    _log_event->_log_car_event
    _log_car_event->_ext_eeprom_24C02_str_write
    _ext_eeprom_24C02_str_write->_ext_eeprom_24C02_byte_write
    _ext_eeprom_24C02_byte_write->_i2c_write
    _init_config->_init_i2c
    _init_i2c->___lldiv
    _init_ds1307->_read_ds1307
    _init_ds1307->_write_ds1307
    _write_ds1307->_i2c_write
    _init_clcd->_init_display_controller
    _init_display_controller->_clcd_write
    _display_dash_board->_display_time
    _display_time->_clcd_putch
    _get_time->_read_ds1307
    _read_ds1307->_i2c_write
    _clear_log->_clcd_print
    _change_password->_clcd_putch
    _clear_screen->_clcd_write
    _clcd_putch->___awdiv
    _clcd_print->_clcd_write
    ___lwdiv->_read_adc

Critical Paths under _isr in BANK0

    None.

Critical Paths under _main in BANK1

    None.

Critical Paths under _isr in BANK1

    None.

Critical Paths under _main in BANK3

    None.

Critical Paths under _isr in BANK3

    None.

Critical Paths under _main in BANK2

    None.

Critical Paths under _isr in BANK2

    None.

Call Graph Tables:

 ---------------------------------------------------------------------------------
 (Depth) Function   	        Calls       Base Space   Used Autos Params    Refs
 ---------------------------------------------------------------------------------
 (0) _main                                                26    26      0  123974
                                             27 BANK0      4     4      0
                                              0 BANK1     22    22      0
                            ___lwdiv
                    _change_password
                         _clcd_print
                         _clcd_putch
                         _clcd_write
                          _clear_log
                       _clear_screen
                 _display_dash_board
         _ext_eeprom_24C02_str_write
                        _init_config
                          _log_event
                              _login
                         _login_menu
                           _read_adc
                _read_digital_keypad
                           _set_time
                             _strcpy
                           _view_log
 ---------------------------------------------------------------------------------
 (1) _view_log                                            17    16      1   14488
                                             10 BANK0     17    16      1
                            ___awmod
                             ___bmul
                         _clcd_print
                         _clcd_putch
              _ext_eeprom_24C02_read
 ---------------------------------------------------------------------------------
 (2) _strcpy                                               5     3      2     487
                                              3 COMMON     3     1      2
                                              0 BANK0      2     2      0
 ---------------------------------------------------------------------------------
 (1) _set_time                                             9     8      1    6101
                                             10 BANK0      3     2      1
                         _clcd_putch
 ---------------------------------------------------------------------------------
 (1) _read_digital_keypad                                  2     2      0      31
                                              3 COMMON     2     2      0
 ---------------------------------------------------------------------------------
 (1) _read_adc                                             4     2      2      34
                                              3 COMMON     2     0      2
                                              0 BANK0      2     2      0
 ---------------------------------------------------------------------------------
 (1) _login_menu                                           4     3      1   14207
                                             10 BANK0      4     3      1
                         _clcd_print
                         _clcd_putch
                       _clear_screen
 ---------------------------------------------------------------------------------
 (1) _login                                                7     6      1   19215
                                             10 BANK0      7     6      1
                            ___awdiv
                            ___awmod
                         _clcd_print
                         _clcd_putch
                         _clcd_write
                       _clear_screen
              _ext_eeprom_24C02_read
                            _strncmp
 ---------------------------------------------------------------------------------
 (2) _ext_eeprom_24C02_read                                2     2      0     161
                                              2 BANK0      2     2      0
                           _i2c_read
                      _i2c_rep_start
                          _i2c_start
                           _i2c_stop
                          _i2c_write
 ---------------------------------------------------------------------------------
 (1) _log_event                                            4     3      1    4218
                                             10 BANK0      4     3      1
                            ___awdiv
                            ___awmod
                      _log_car_event
                            _strncpy
 ---------------------------------------------------------------------------------
 (2) _strncpy                                              6     3      3     634
                                              3 COMMON     3     0      3
                                              0 BANK0      3     3      0
 ---------------------------------------------------------------------------------
 (2) _log_car_event                                        2     2      0     849
                                              8 BANK0      2     2      0
                             ___bmul
         _ext_eeprom_24C02_str_write
 ---------------------------------------------------------------------------------
 (3) _ext_eeprom_24C02_str_write                           4     2      2     465
                                              4 BANK0      4     2      2
        _ext_eeprom_24C02_byte_write
 ---------------------------------------------------------------------------------
 (4) _ext_eeprom_24C02_byte_write                          4     3      1     186
                                              2 BANK0      2     1      1
                          _i2c_start
                           _i2c_stop
                          _i2c_write
 ---------------------------------------------------------------------------------
 (2) ___bmul                                               4     3      1     316
                                              3 COMMON     2     1      1
                                              0 BANK0      2     2      0
 ---------------------------------------------------------------------------------
 (1) _init_config                                          0     0      0    2906
                           _init_adc
                          _init_clcd
                _init_digital_keypad
                        _init_ds1307
                           _init_i2c
                        _init_timer2
 ---------------------------------------------------------------------------------
 (2) _init_timer2                                          0     0      0       0
 ---------------------------------------------------------------------------------
 (2) _init_i2c                                             8     4      4     542
                                             13 BANK0      8     4      4
                            ___lldiv
 ---------------------------------------------------------------------------------
 (3) ___lldiv                                             14     6      8     421
                                              3 COMMON     1     1      0
                                              0 BANK0     13     5      8
 ---------------------------------------------------------------------------------
 (2) _init_ds1307                                          1     1      0     412
                                              4 BANK0      1     1      0
                        _read_ds1307
                       _write_ds1307
 ---------------------------------------------------------------------------------
 (3) _write_ds1307                                         2     1      1     183
                                              2 BANK0      2     1      1
                          _i2c_start
                           _i2c_stop
                          _i2c_write
 ---------------------------------------------------------------------------------
 (2) _init_digital_keypad                                  0     0      0       0
 ---------------------------------------------------------------------------------
 (2) _init_clcd                                            0     0      0    1952
            _init_display_controller
 ---------------------------------------------------------------------------------
 (3) _init_display_controller                              2     2      0    1952
                                              1 BANK0      2     2      0
                         _clcd_write
 ---------------------------------------------------------------------------------
 (2) _init_adc                                             0     0      0       0
 ---------------------------------------------------------------------------------
 (1) _display_dash_board                                   5     3      2   20716
                                             12 BANK0      5     3      2
                            ___awdiv
                            ___awmod
                         _clcd_print
                         _clcd_putch
                       _display_time
 ---------------------------------------------------------------------------------
 (2) _display_time                                         2     0      2    6166
                                             10 BANK0      2     0      2
                         _clcd_putch
                           _get_time
 ---------------------------------------------------------------------------------
 (3) _get_time                                             1     1      0     161
                                              4 BANK0      1     1      0
                        _read_ds1307
 ---------------------------------------------------------------------------------
 (3) _read_ds1307                                          2     2      0     161
                                              2 BANK0      2     2      0
                           _i2c_read
                      _i2c_rep_start
                          _i2c_start
                           _i2c_stop
                          _i2c_write
 ---------------------------------------------------------------------------------
 (3) _i2c_write                                            5     3      2      31
                                              3 COMMON     3     1      2
                                              0 BANK0      2     2      0
                  _i2c_wait_for_idle
 ---------------------------------------------------------------------------------
 (3) _i2c_rep_start                                        0     0      0       0
                          _i2c_start
                           _i2c_stop
 ---------------------------------------------------------------------------------
 (3) _i2c_stop                                             0     0      0       0
                  _i2c_wait_for_idle
 ---------------------------------------------------------------------------------
 (3) _i2c_start                                            0     0      0       0
                  _i2c_wait_for_idle
 ---------------------------------------------------------------------------------
 (3) _i2c_read                                             2     2      0      65
                                              3 COMMON     2     2      0
                  _i2c_wait_for_idle
 ---------------------------------------------------------------------------------
 (4) _i2c_wait_for_idle                                    0     0      0       0
 ---------------------------------------------------------------------------------
 (2) ___awmod                                              7     3      4    1153
                                              3 COMMON     3     3      0
                                              0 BANK0      4     0      4
 ---------------------------------------------------------------------------------
 (2) ___awdiv                                              9     5      4     985
                                              3 COMMON     1     1      0
                                              0 BANK0      8     4      4
 ---------------------------------------------------------------------------------
 (1) _clear_log                                            4     4      0    6219
                                              4 BANK0      4     4      0
                         _clcd_print
 ---------------------------------------------------------------------------------
 (1) _change_password                                      7     6      1   17065
                                             10 BANK0      7     6      1
                         _clcd_print
                         _clcd_putch
                         _clcd_write
                       _clear_screen
                       _eeprom_write
                            _strncmp
 ---------------------------------------------------------------------------------
 (2) _strncmp                                              6     3      3     624
                                              3 COMMON     3     0      3
                                              0 BANK0      3     3      0
 ---------------------------------------------------------------------------------
 (2) _eeprom_write                                         3     2      1     152
                                              3 COMMON     3     2      1
 ---------------------------------------------------------------------------------
 (2) _clear_screen                                         2     2      0    1952
                                              1 BANK0      2     2      0
                         _clcd_write
 ---------------------------------------------------------------------------------
 (2) _clcd_putch                                           2     1      1    5884
                                              8 BANK0      2     1      1
                            ___awdiv (ARG)
                            ___awmod (ARG)
                         _clcd_write
 ---------------------------------------------------------------------------------
 (2) _clcd_print                                           3     0      3    6188
                                              1 BANK0      3     0      3
                         _clcd_write
 ---------------------------------------------------------------------------------
 (3) _clcd_write                                           4     3      1    1952
                                              3 COMMON     3     2      1
                                              0 BANK0      1     1      0
 ---------------------------------------------------------------------------------
 (1) ___lwdiv                                              8     4      4     421
                                              5 COMMON     1     1      0
                                              2 BANK0      7     3      4
                           _read_adc (ARG)
 ---------------------------------------------------------------------------------
 Estimated maximum stack depth 4
 ---------------------------------------------------------------------------------
 (Depth) Function   	        Calls       Base Space   Used Autos Params    Refs
 ---------------------------------------------------------------------------------
 (8) _isr                                                  3     3      0       0
                                              0 COMMON     3     3      0
 ---------------------------------------------------------------------------------
 Estimated maximum stack depth 8
 ---------------------------------------------------------------------------------

 Call Graph Graphs:

 _main (ROOT)
   ___lwdiv
     _read_adc (ARG)
   _change_password
     _clcd_print
       _clcd_write
     _clcd_putch
       ___awdiv (ARG)
       ___awmod (ARG)
       _clcd_write (ARG)
     _clcd_write
     _clear_screen
       _clcd_write
     _eeprom_write
     _strncmp
   _clcd_print
   _clcd_putch
   _clcd_write
   _clear_log
     _clcd_print
   _clear_screen
   _display_dash_board
     ___awdiv
     ___awmod
     _clcd_print
     _clcd_putch
     _display_time
       _clcd_putch
       _get_time
         _read_ds1307
           _i2c_read
             _i2c_wait_for_idle
           _i2c_rep_start
             _i2c_start
               _i2c_wait_for_idle
             _i2c_stop
               _i2c_wait_for_idle
           _i2c_start
           _i2c_stop
           _i2c_write
             _i2c_wait_for_idle
   _ext_eeprom_24C02_str_write
     _ext_eeprom_24C02_byte_write
       _i2c_start
       _i2c_stop
       _i2c_write
   _init_config
     _init_adc
     _init_clcd
       _init_display_controller
         _clcd_write
     _init_digital_keypad
     _init_ds1307
       _read_ds1307
       _write_ds1307
         _i2c_start
         _i2c_stop
         _i2c_write
     _init_i2c
       ___lldiv
     _init_timer2
   _log_event
     ___awdiv
     ___awmod
     _log_car_event
       ___bmul
       _ext_eeprom_24C02_str_write
     _strncpy
   _login
     ___awdiv
     ___awmod
     _clcd_print
     _clcd_putch
     _clcd_write
     _clear_screen
     _ext_eeprom_24C02_read
       _i2c_read
       _i2c_rep_start
       _i2c_start
       _i2c_stop
       _i2c_write
     _strncmp
   _login_menu
     _clcd_print
     _clcd_putch
     _clear_screen
   _read_adc
   _read_digital_keypad
   _set_time
     _clcd_putch
   _strcpy
   _view_log
     ___awmod
     ___bmul
     _clcd_print
     _clcd_putch
     _ext_eeprom_24C02_read

 _isr (ROOT)

 Address spaces:
Name               Size   Autos  Total    Cost      Usage
BANK3               60      0       0       9        0.0%
BITBANK3            60      0       0       8        0.0%
SFR3                 0      0       0       4        0.0%
BITSFR3              0      0       0       4        0.0%
BANK2               60      0       0      11        0.0%
BITBANK2            60      0       0      10        0.0%
SFR2                 0      0       0       5        0.0%
BITSFR2              0      0       0       5        0.0%
BANK1               50     16      4B       7       93.8%
BITBANK1            50      0       0       6        0.0%
SFR1                 0      0       0       2        0.0%
BITSFR1              0      0       0       2        0.0%
BANK0               50     1F      3C       5       75.0%
BITBANK0            50      0       0       4        0.0%
SFR0                 0      0       0       1        0.0%
BITSFR0              0      0       0       1        0.0%
COMMON               E      6       B       1       78.6%
BITCOMMON            E      0       0       0        0.0%
CODE                 0      0       0       0        0.0%
DATA                 0      0      92      12        0.0%
ABS                  0      0      92       3        0.0%
NULL                 0      0       0       0        0.0%
STACK                0      0       0       2        0.0%
EEDATA             100      0       0       0        0.0%


Microchip Technology PIC Macro Assembler V2.40 build 20220703182018 
Symbol Table                                                                                   Thu Apr 06 08:22:46 2023

                                  pc 0002                       ___bmul@product 0020  
                     clcd_print@addr 0023                                   l55 17D2  
                                 l71 020B                                   l89 021F  
                                 _GO 00FA                         ___awdiv@sign 0025  
                                 fsr 0004                  clear_log@reset_flag 0027  
                  log_car_event@addr 0029                   login_menu@menu_pos 004F  
                                l123 07FF                                  l300 0B9C  
                                l221 1627                                  l230 086E  
                                l126 08A1                                  l215 1710  
                                l303 0C63                                  l311 0AE2  
                                l224 1682                                  l161 1628  
                                l129 1734                                  l170 161C  
                                l218 0BFF                                  l251 166D  
                                l340 1646                                  l164 1634  
                                l308 097E                                  l324 04B8  
                                l173 1611                                  l181 16CD  
                                l245 15F7                                  l158 0908  
                                l167 1608                                  l176 16E9  
                                l352 07EA                                  l248 165D  
                                l177 16EC                                  l433 08D4  
                                l178 16EE                                  l442 083B  
                                l194 17A7                                  l419 05FB  
                                l188 15F0                                  l436 1758  
                                l373 0941                                  l390 0EC1  
                                l296 0A8E                                  l369 0FFF  
                                l466 080C                                  l626 1699  
                                l299 0B4C                                  l636 0CCB  
                                l590 17D4                                  l399 0EC8  
                                l593 17EE                                  l753 0D34  
                                l596 17FF                                  l589 17D4  
                                l766 0B3D                                  l872 0A41  
                                _GIE 005F                                  _RE1 0049  
                                _RE2 004A                                  _PR2 0092  
                                _PEN 048A                                  _SEN 0488  
                                _PSA 040B                        ?_display_time 002A  
                                _log 00A0                                  _sec 0046  
                                _isr 0D35                       clcd_putch@addr 0028  
                                _pos 005B                                  fsr0 0004  
                     clcd_putch@data 0029                                  indf 0000  
                       ___awmod@sign 0075                   view_log@reset_flag 002A  
                               l1062 09FB                                 l1054 177D  
                               l1057 09EB                                 l1073 09BB  
              ??_read_digital_keypad 0073                                 l4011 0F5B  
                               l4003 0F2C                                 l4021 090C  
                               l4101 0EC1                                 l4005 0F3A  
                               l4013 0FF0                                 l4111 04C4  
                               l4023 0912                                 l4031 0940  
                               l4103 0EC7                                 l4015 0FF8  
                               l4007 0F46                                 l4201 0A06  
                               l4121 04EA                                 l4113 04C8  
                               l4025 0918                                 l3401 1605  
                               l4041 0DBA                                 l4017 0FFE  
                               l4009 0F4E                                 l4211 0A29  
                               l4203 0A09                                 l4131 0514  
                               l4123 04F1                                 l4115 04D5  
                               l4107 04BC                                 l4027 0923  
                               l3403 1609                                 l3411 16BD  
                               l4051 0E2B                                 l4043 0DBE  
                               l4035 0DB0                                 l4213 0A2F  
                               l4205 0A10                                 l4141 053C  
                               l4133 0519                                 l4117 04DD  
                               l4125 04F9                                 l4109 04C2  
                               l3421 16DC                                 l3405 160E  
                               l3501 168B                                 l4061 0E53  
                               l4053 0E36                                 l4045 0E0D  
                               l4037 0DB2                                 l4301 01A6  
                               l4215 0A30                                 l4207 0A14  
                               l3431 16F2                                 l4151 0561  
                               l4143 0542                                 l4135 0526  
                               l4127 0508                                 l4119 04DF  
                               l3423 16E0                                 l3415 1612  
                               l3407 16B4                                 l3511 0C64  
                               l3503 168F                                 l4071 0E6C  
                               l4063 0E59                                 l4055 0E3C  
                               l4047 0E16                                 l4039 0DB8  
                               l4311 01C3                                 l4303 01B3  
                               l4231 0059                                 l4223 004A  
                               l4217 0A37                                 l4209 0A18  
                               l3433 16FC                                 l4145 054C  
                               l4137 052D                                 l4129 0510  
                               l3425 16E5                                 l3417 16CF  
                               l3409 16B9                                 l3441 089E  
                               l3521 0C93                                 l3513 0C76  
                               l3505 1691                                 l3601 0985  
                               l4081 0E8C                                 l4065 0E5D  
                               l4073 0E71                                 l4057 0E42  
                               l4049 0E1E                                 l4401 0320  
                               l4321 01E1                                 l4313 01C6  
                               l4305 01B7                                 l4241 0092  
                               l4233 0070                                 l4225 004F  
                               l4219 0A3D                                 l3435 16FE  
                               l4171 05AC                                 l4155 056C  
                               l4147 0555                                 l4139 0534  
                               l3427 16ED                                 l3419 16D4  
                               l3523 0CA5                                 l3515 0C79  
                               l3531 0CC3                                 l3507 1698  
                               l3451 0821                                 l3611 09A9  
                               l3603 098B                                 l4091 0EAA  
                               l4083 0E8E                                 l4075 0E78  
                               l4067 0E60                                 l4059 0E49  
                               l4323 01E4                                 l4315 01CB  
                               l4307 01BA                                 l4331 01F0  
                               l4251 00D3                                 l4243 00AE  
                               l4235 0074                                 l4227 0053  
                               l3437 1704                                 l3621 09BF  
                               l4173 05B1                                 l4165 0589  
                               l4157 0573                                 l4149 055B  
                               l3701 0AE3                                 l3461 0B9D  
                               l3541 1622                                 l3525 0CB3  
                               l3517 0C86                                 l3445 1738  
                               l3453 0829                                 l3613 09AD  
                               l4093 0EB0                                 l4085 0E94  
                               l4077 0E82                                 l4069 0E66  
                               l4501 0253                                 l4341 0235  
                               l4333 020C                                 l4325 01E9  
                               l4317 01D0                                 l4309 01BF  
                               l4253 00D9                                 l4261 010F  
                               l4245 00B4                                 l4237 007D  
                               l4229 0053                                 l3631 09E3  
                               l3623 09C0                                 l4175 05BE  
                               l4167 0597                                 l4159 0585  
                               l3711 0AF5                                 l3703 0AE4  
                               l3439 0872                                 l3471 0BCF  
                               l3463 0BA8                                 l3535 161D  
                               l3543 15EB                                 l3527 0CB4  
                               l3519 0C8A                                 l3551 0905  
                               l3455 082D                                 l3447 0810  
                               l3607 099E                                 l3615 08A5  
                               l4095 0EB4                                 l4079 0E88  
                               l4087 0E99                                 l4503 02F5  
                               l4351 0262                                 l4335 0223  
                               l4327 01ED                                 l4319 01DD  
                               l4263 0117                                 l4271 014D  
                               l4255 00E6                                 l4247 00B6  
                               l4239 0089                                 l3457 1671  
                               l3641 17E6                                 l3633 09F9  
                               l3625 09C8                                 l4177 05CB  
                               l4169 059F                                 l4185 05DB  
                               l3721 0B0E                                 l3713 0AFA  
                               l3705 0AEA                                 l3481 0A42  
                               l3545 15F1                                 l3473 0BD2  
                               l3465 0BAF                                 l3537 1620  
                               l3553 07EB                                 l3529 0CBD  
                               l3561 0804                                 l3449 0811  
                               l3609 09A5                                 l3617 08D1  
                               l4097 0EB6                                 l4089 0EA0  
                               l3801 1763                                 l4505 0306  
                               l4361 0297                                 l4353 0269  
                               l4337 022A                                 l4281 0169  
                               l4273 0155                                 l4265 0124  
                               l4257 00FC                                 l4249 00BC  
                               l3571 083C                                 l3651 17F7  
                               l3643 17E9                                 l3627 09D4  
                               l4187 05E0                                 l4179 05D9  
                               l3723 0B12                                 l3715 0B00  
                               l3731 0B2F                                 l3707 0AEF  
                               l3395 1628                                 l3491 0A7D  
                               l3483 0A5D                                 l3475 0BD9  
                               l3467 0BC1                                 l3539 1621  
                               l3459 1714                                 l3555 07F4  
                               l3547 08D5                                 l3563 0808  
                               l3811 032A                                 l4099 0EBC  
                               l3803 1769                                 l4371 02B3  
                               l4363 0299                                 l4355 027B  
                               l4347 023C                                 l4339 0231  
                               l4291 0190                                 l4283 016B  
                               l4275 015B                                 l4267 012C  
                               l4259 0104                                 l4197 09FC  
                               l3573 0846                                 l3653 17F8  
                               l3645 17ED                                 l3637 17DA  
                               l4189 05ED                                 l3661 0CD3  
                               l3733 0B34                                 l3725 0B1C  
                               l3717 0B03                                 l3709 0AF1  
                               l3397 162E                                 l3493 0A89  
                               l3485 0A69                                 l3581 0B47  
                               l3805 0C03                                 l3477 0BE7  
                               l3469 0BC8                                 l3557 07F7  
                               l3549 08D8                                 l3565 0809  
                               l3741 17B2                                 l3901 044F  
                               l3821 0336                                 l3813 032F  
                               l4373 02B6                                 l4365 029D  
                               l4357 028E                                 l4349 025B  
                               l4285 0178                                 l4277 0160  
                               l4293 0194                                 l4269 0140  
                               l4199 0A00                                 l3575 0856  
                               l3567 1635                                 l3655 17FE  
                               l3647 17F2                                 l3639 17E0  
                               l3671 0CE7                                 l3663 0CD8  
                               l3735 0B39                                 l3727 0B22  
                               l3719 0B0A                                 l3399 1600  
                               l3495 0A8D                                 l3487 0A6D  
                               l3807 0C0E                                 l3479 0BF1  
                               l3559 0800                                 l3751 17D1  
                               l3743 17B7                                 l3591 0951  
                               l3583 0942                                 l3911 048C  
                               l3903 0454                                 l3823 0337  
                               l3815 0330                                 l3831 0342  
                               l4383 02CA                                 l4367 02AA  
                               l4359 0293                                 l4295 019A  
                               l4287 0182                                 l4279 0165  
                               l3577 085E                                 l3569 163C  
                               l3649 17F6                                 l3681 0CFD  
                               l3673 0CE9                                 l3665 0CDA  
                               l3657 0CCC                                 l3729 0B29  
                               l3489 0A79                                 l3809 0C1C  
                               l3745 17C6                                 l3497 1686  
                               l3593 095D                                 l3585 0946  
                               l3761 0ADD                                 l3753 0A92  
                               l3921 04B4                                 l3913 0499  
                               l3905 0461                                 l3841 0356  
                               l3833 0348                                 l3825 0338  
                               l3817 0332                                 l4385 02D6  
                               l4369 02AF                                 l4289 0189  
                               l3691 0D20                                 l3683 0D01  
                               l3675 0CEF                                 l3667 0CDE  
                               l3659 0CCF                                 l3579 0B3E  
                               l3747 17CB                                 l3739 17A8  
                               l3499 1687                                 l3595 0967  
                               l3587 094A                                 l3755 0AAC  
                               l3915 04A3                                 l3907 0479  
                               l3851 0376                                 l3843 035C  
                               l3827 033C                                 l3819 0335  
                               l3931 0756                                 l3923 0742  
                               l3771 1789                                 l3763 177F  
                               l4395 02DE                                 l4299 01A1  
                               l3685 0D12                                 l3677 0CF2  
                               l3693 0D26                                 l3669 0CE3  
                               l3749 17D0                                 l3597 0976  
                               l3589 0950                                 l3757 0AC4  
                               l3917 04AA                                 l3909 0487  
                               l3853 037C                                 l3861 0390  
                               l3845 0360                                 l3837 034A  
                               l3829 0340                                 l3941 0771  
                               l3933 075C                                 l3925 0748  
                               l3773 1794                                 l3765 1784  
                               l3695 0D2B                                 l3687 0D18  
                               l3679 0CF9                                 l3599 0982  
                               l3759 0ADC                                 l3919 04B1  
                               l3871 03A5                                 l3863 0396  
                               l3855 0382                                 l3847 0369  
                               l3839 0350                                 l3951 0799  
                               l3935 0760                                 l3927 0749  
                               l3791 165A                                 l3775 1799  
                               l3783 179B                                 l4399 02FA  
                               l3697 0D30                                 l3689 0D19  
                               l3873 03AD                                 l3857 0386  
                               l3849 0370                                 l3961 07E7  
                               l3953 07AF                                 l3945 0774  
                               l3937 0766                                 l3929 074E  
                               l3793 1661                                 l3785 17A4  
                               l3891 03FE                                 l3883 03CE  
                               l3875 03BA                                 l3955 07B5  
                               l3947 077C                                 l3939 076C  
                               l3787 17A6                                 l3971 0ED9  
                               l4499 01FA                                 l3893 040B  
                               l3885 03D7                                 l3877 03CC  
                               l3869 0398                                 l3957 07BD  
                               l3949 0784                                 l3797 175C  
                               l3981 0EF6                                 l3973 0EDB  
                               l3965 0ECC                                 l3895 0412  
                               l3887 03E3                                 l3959 07D2  
                               l3799 175F                                 l3991 0F22  
                               l3983 0EFC                                 l3975 0EE3  
                               l3967 0ECD                                 l3897 0444  
                               l3889 03F1                                 l3993 0F27  
                               l3985 0F0F                                 l3977 0EEF  
                               l3969 0ED3                                 _ADFM 04FF  
                               l3899 044C                                 l3987 0F15  
                               l3979 0EF5                                 ?_isr 0070  
                               l3997 0F2A                                 l3989 0F1A  
                               _ADON 00F8                                 STR_1 0739  
                               STR_2 073C                                 STR_3 072D  
                               STR_4 0730                                 STR_5 0733  
                               STR_6 0736                                 STR_7 0725  
                               STR_8 072A                                 STR_9 0678  
                               _T0CS 040D                                 u3010 0CC3  
                               u3011 0CC2                                 u3100 09C8  
                               u3020 08E6                                 u3101 09C7  
                               u3005 0CB5                                 u3030 086E  
                               u3110 09D4                                 u3031 086D  
                               u3111 09D3                                 u3120 09F9  
                               u3200 0D01                                 u3040 0B47  
                               u3121 09F8                                 u3201 0D00  
                               u3041 0B46                                 u3025 08E1  
                               u4010 0A18                                 u3130 17DA  
                               u3050 0950                                 u4011 0A17  
                               u3131 17D9                                 u3051 094F  
                               u3140 17ED                                 u3220 0D12  
                               u3300 0B12                                 u3060 0976  
                               u4100 00E6                                 u4005 0A0A  
                               u3141 17EC                                 u3221 0D11  
                               u3301 0B11                                 u3061 0975  
                               u4101 00E5                                 u4030 0A29  
                               u3150 17FE                                 u3310 0B1C  
                               u3070 099D                                 u4110 0117  
                               u4031 0A28                                 u3151 17FD  
                               u3215 0D02                                 u3311 0B1B  
                               u3071 099C                                 u4111 0116  
                               u3240 0D26                                 u3160 0CD3  
                               u3080 09A4                                 u3400 177D  
                               u4200 02C9                                 u4120 0124  
                               u4025 0A19                                 u3241 0D25  
                               u3225 0D0E                                 u3161 0CD2  
                               u3065 0972                                 u3081 09A3  
                               u3401 177C                                 u4201 02C8  
                               u4121 0123                                 u4105 00E2  
                               u4050 0A3D                                 u3250 0D2B  
                               u3170 0CDE                                 u3330 0B2F  
                               u3090 09BB                                 u3410 032F  
                               u4130 0155                                 u4051 0A3C  
                               u4035 0A25                                 u3251 0D2A  
                               u3235 0D1A                                 u3171 0CDD  
                               u3331 0B2E                                 u3315 0B18  
                               u3091 09BA                                 u3411 032E  
                               u4131 0154                                 u3180 0CEF  
                               u3340 0B34                                 u3260 0AEA  
                               u3500 03D7                                 u3420 0348  
                               u4140 015B                                 u4060 0063  
                               u4045 0A31                                 u3181 0CEE  
                               u3341 0B33                                 u3325 0B23  
                               u3261 0AE9                                 u3501 03D6  
                               u3421 0347                                 u4141 015A  
                               u4125 0120                                 u3270 0AF5  
                               u3510 044C                                 u3430 0350  
                               u3350 1784                                 u4150 0160  
                               u4070 00B4                                 u3271 0AF4  
                               u3511 044B                                 u3431 034F  
                               u3351 1783                                 u4151 015F  
                               u4071 00B3                                 u3280 0B00  
                               u3440 0356                                 u3520 0748  
                               u3360 1794                                 u3600 0EE3  
                               u4160 019A                                 u4080 00BC  
                               u3281 0AFF                                 u3441 0355  
                               u3521 0747                                 u3361 1793  
                               u3601 0EE2                                 u4161 0199  
                               u4217 018D                                 u4081 00BB  
                               u3450 0376                                 u3530 0756  
                               u3370 1799                                 u3610 0EF5  
                               u4170 01A0                                 u4090 00D9  
                               u3195 0CF3                                 u4307 0BC5  
                               u3451 0375                                 u3531 0755  
                               u3371 1798                                 u3611 0EF4  
                               u4227 022E                                 u4171 019F  
                               u4091 00D8                                 u3460 037C  
                               u3540 075C                                 u3380 17A4  
                               u3700 0DB8                                 u3620 0EFC  
                               u4180 028E                                 u4317 0BDD  
                               u3461 037B                                 u3541 075B  
                               u3381 17A3                                 u3701 0DB7  
                               u3621 0EFB                                 u4181 028D  
                               u4237 0266                                 u3470 0396  
                               u3550 076C                                 u3390 1661  
                               u3710 0DBE                                 u3630 0F0F  
                               u4190 02AA                                 u3295 0B04  
                               u4327 0BED                                 u3471 0395  
                               u3551 076B                                 u3391 1660  
                               u3711 0DBD                                 u3631 0F0E  
                               u4247 02DA                                 u4191 02A9  
                               u2840 162E                                 u3480 03BA  
                               u3560 0771                                 u3800 0E78  
                               u3720 0E1E                                 u3640 0F22  
                               u2841 162D                                 u2905 0A60  
                               u4337 0BFC                                 u4257 03EB  
                               u3481 03B9                                 u3561 0770  
                               u3801 0E77                                 u3721 0E1D  
                               u3641 0F21                                 u2850 1634  
                               u2930 168B                                 u3490 03CC  
                               u3570 077C                                 u3810 0E82  
                               u3730 0E2B                                 u3650 0F27  
                               u4347 0938                                 u2851 1633  
                               u2915 0A70                                 u2931 168A  
                               u4267 0481                                 u3491 03CB  
                               u3571 077B                                 u3811 0E81  
                               u3731 0E2A                                 u3651 0F26  
                               u3635 0F0B                                 _PEIE 005E  
                               u3900 04D5                                 u2860 16E5  
                               u2940 1698                                 u3580 07B5  
                               u3820 0E88                                 u3740 0E42  
                               u3660 0F5B                                 u4357 05D3  
                               u3901 04D4                                 u2861 16E4  
                               u2925 0A80                                 u2941 1697  
                               u4277 04AE                                 u3485 03B6  
                               u3581 07B4                                 u3821 0E87  
                               u3741 0E41                                 u3661 0F5A  
                               u2870 16F9                                 u3910 04DD  
                               u2950 0C76                                 u3830 0E94  
                               u3750 0E49                                 u3670 0FF8  
                               u3590 0ED3                                 u2871 16F5  
                               u4367 1642                                 u3911 04DC  
                               u4287 0BA3                                 u2951 0C75  
                               u3831 0E93                                 u3751 0E48  
                               u3735 0E27                                 u3671 0FF7  
                               u3591 0ED2                                 u3920 0508  
                               u3840 0EA0                                 u3760 0E53  
                               u3680 0FFE                                 u4377 1701  
                               u3921 0507                                 u3905 04D1  
                               u4297 0BB5                                 u3841 0E9F  
                               u3761 0E52                                 u3681 0FFD  
                               u3665 0F57                                 u3930 0510  
                               u3690 0912                                 u2970 0C8A  
                               u2890 083B                                 u3850 0EAA  
                               u3770 0E59                                 u4387 170B  
                               u3931 050F                                 u3691 0911  
                               u2971 0C89                                 u2891 083A  
                               u3851 0EA9                                 u3771 0E58  
                               u2884 16FC                                 u3940 053C  
                               u3860 0EB0                                 u3780 0E66  
                               _RCEN 048B                                 u3941 053B  
                               u3925 0504                                 u2965 0C7B  
                               u3861 0EAF                                 u3781 0E65  
                               u3950 055B                                 u2990 0CA5  
                               u3870 0EBC                                 u3790 0E6C  
                               u3951 055A                                 u2991 0CA4  
                               u3871 0EBB                                 u3791 0E6B  
                               u3960 0573                                 u3880 0EC7  
                               u3961 0572                                 u2985 0C8C  
                               u3881 0EC6                                 u3970 0585  
                               u3890 04C2                                 u3971 0584  
                               u3891 04C1                                 u2995 0CA1  
                               u3980 05AC                                 u3981 05AB  
                               u3990 0A06                                 u3991 0A05  
                               u3985 05A8                                 _TMR0 0001  
                     ??_eeprom_write 0074                                 _R_nW 04A2  
         __end_of_display_dash_board 0C64                                 _main 004A  
                               _menu 00C8                                 _tick 004A  
                     log_event@event 002D                                 _time 0052  
                               btemp 007E                       log_event@speed 002A  
                               start 000E                    ___bmul@multiplier 0021  
                     clcd_write@byte 0020                       clcd_write@mode 0073  
                      _i2c_rep_start 1612                                ??_isr 0070  
                       ?_init_ds1307 0070                                ?_main 0070  
                       ?_read_ds1307 0070                                _ACKEN 048C  
                              _ACKDT 048D                       ??_display_time 0076  
                    __end_of___awdiv 0D35                                _EEADR 010D  
                              STR_10 0647                                STR_11 0700  
                              STR_20 06B5                                STR_12 0713  
                              STR_21 06DF                                STR_13 06F6  
                              STR_30 0636                                STR_22 06A6  
                              STR_14 06D2                                STR_23 071C  
                              STR_31 070A                                STR_15 06EB  
                              STR_24 0688                                STR_16 0668  
                              STR_25 0697                                STR_17 0614  
                              STR_26 06C4                                STR_18 0658  
                              STR_27 0625                                STR_19 0600  
                              STR_28 0636                      __end_of___awmod 0B3E  
                              STR_29 0697                      __end_of___lldiv 0CCC  
                        i2c_read@ack 0073                      ___awdiv@divisor 0020  
                    __end_of___lwdiv 0A42                                i1l490 0DA4  
                       ?_init_config 0070                      ___awdiv@counter 0024  
                              _PORTB 0006                                _PORTD 0008  
                              _SSPM3 00A3                                _TRISB 0086  
                              _TRISD 0088                                _SSPEN 00A5  
                       ?_init_timer2 0070                         main@menu_pos 00E1  
                              _nDONE 00FA                 __end_of_clear_screen 1647  
                              _login 0327                         view_log@nlog 002D  
                       view_log@npos 004E                      _change_password 04B9  
                              pclath 000A                 login_menu@reset_flag 002D  
                              status 0003                                wtemp0 007E  
                    __end_of_strncmp 09FC                      __end_of_strncpy 09BC  
                   init_ds1307@dummy 0024                      __initialization 0011  
                     ?_i2c_rep_start 0070                         __end_of_main 0327  
                   __end_of_i2c_read 16EF                     __end_of_i2c_stop 1612  
                             ??_main 003B                               _ADRESH 001E  
                             ?_login 002A                               _ADRESL 009E  
                             _EEDATA 010C                               _EECON1 018C  
                             _EECON2 018D                     ___awdiv@dividend 0022  
                       i2c_read@data 0074                               i1l3301 0D6A  
                             i1l3311 0D9F                               i1l3303 0D77  
                             i1l3313 0DA1                               i1l3305 0D7F  
                             i1l3307 0D8E                               i1l3309 0D90  
                             i1l3291 0D3B                               i1l3293 0D4A  
                             i1l3295 0D4C                               i1l3297 0D59  
                             i1l3289 0D35                               i1l3299 0D62  
                             u280_20 0D6A                               u280_21 0D69  
                             u281_20 0D77                               u281_21 0D76  
                             u281_25 0D73                               u282_20 0D8E  
                             u282_21 0D8D                         _write_ds1307 1711  
                             u283_20 0D9F                               u283_21 0D9E  
                             u277_20 0D3B                               u277_21 0D3A  
                             u278_20 0D4A                               u278_21 0D49  
                             u279_20 0D59                               u279_21 0D58  
                             u279_25 0D55                               _TMR0IE 005D  
                             _TMR2IE 0461                               _TMR2IF 0061  
                             _TMR2ON 0092                               _SSPADD 0093  
                             _TRISE1 0449                               _TRISE2 044A  
                             _SSPBUF 0013                        login_menu@key 002A  
        __end_of_init_digital_keypad 15F1                     __end_of_get_time 0A8F  
                             ___bmul 1683              _init_display_controller 0B9D  
                             _access 0048                            ??___awdiv 0073  
                          ??___awmod 0073                            ??___lldiv 0073  
          change_password@reset_flag 002A         ??_ext_eeprom_24C02_str_write 0026  
                          ??___lwdiv 0075                     __end_of_init_i2c 0909  
                   __end_of_init_adc 15F8                     __end_of_read_adc 166E  
                   ___awdiv@quotient 0026                      ___awmod@divisor 0020  
               __end_of_eeprom_write 1800                      ___awmod@counter 0074  
                             main@gr 00E5                               _strcpy 1759  
       ?_ext_eeprom_24C02_byte_write 0022                         __pdataCOMMON 007A  
                             login@i 0051                               login@k 002F  
            __end_of_change_password 05FC                     __end_of_set_time 0EC9  
                             saved_w 007E                     __end_of_view_log 1000  
                          ??_strncmp 0020                            ??_strncpy 0020  
            __end_of__initialization 0046                 __end_of_display_time 0B9D  
                    ??_i2c_rep_start 0073                  ___bmul@multiplicand 0073  
                     __pcstackCOMMON 0070                         __pidataBANK0 05FC  
                       __pidataBANK1 169A                        __end_of_login 04B9  
                    login@reset_flag 002E                    __end_of_i2c_start 1609  
                  __end_of_i2c_write 16CE        ??_ext_eeprom_24C02_byte_write 0076  
                  eeprom_write@value 0073         display_dash_board@reset_flag 002D  
                  _i2c_wait_for_idle 1628                              ??_login 002B  
                 ?_i2c_wait_for_idle 0070                           __pbssBANK0 003F  
                         __pbssBANK1 00A0                            ?_i2c_read 0070  
                          ?_i2c_stop 0070            ??_init_display_controller 0021  
                         _clcd_print 083C                  ??_i2c_wait_for_idle 0073  
                         _clcd_putch 166E                           _clcd_write 16EF  
              _ext_eeprom_24C02_read 08A2                           __pmaintext 004A  
                    read_ds1307@addr 0022                        _log_car_event 0942  
                    read_ds1307@data 0023                         _clear_screen 1635  
                            ?___bmul 0073                           __pintentry 0004  
                 _display_dash_board 0C00                              _ACKSTAT 048E  
                            ?_strcpy 0073                              _T2CKPS0 0090  
                            _T2CKPS1 0091                  ?_display_dash_board 002C  
        __end_of_read_digital_keypad 17A8                     ?_change_password 002A  
          __end_of_i2c_wait_for_idle 1635                         init_i2c@baud 002D  
                            _SSPCON2 0091                            ?_get_time 0070  
                         __stringtab 1000                           ??_i2c_read 0073  
                         ??_i2c_stop 0073                            ?_init_i2c 002D  
                          ?_init_adc 0070                            ?_read_adc 0073  
                  __end_of_clear_log 0942                 ??_display_dash_board 002E  
                     ?_log_car_event 0070                            ?_set_time 002A  
                 change_password@key 002E                   change_password@pwd 00AB  
 __end_of_ext_eeprom_24C02_str_write 083C           _ext_eeprom_24C02_str_write 080D  
          ext_eeprom_24C02_read@addr 0022            ext_eeprom_24C02_read@data 0023  
                            ___awdiv 0CCC                              ___awmod 0AE3  
                          ?_view_log 002A                              ___lldiv 0C64  
                            ___lwdiv 09FC                     main@control_flag 00E7  
                            __ptext1 0EC9                              __ptext2 1759  
                            __ptext3 0DAD                              __ptext4 177E  
                            __ptext5 165A                              __ptext6 073F  
                            __ptext7 0327                              __ptext8 08A2  
                            __ptext9 0A8F                     login@attempt_rem 0050  
    __end_of_init_display_controller 0C00                    __end_of_init_clcd 1628  
                   ___awmod@dividend 0022                       main@reset_flag 00E9  
                  __end_of_log_event 0AE3                           _login_menu 073F  
                            main@key 00EA                              clrloop0 15F9  
                         ??_get_time 0024                              _strncmp 09BC  
                            _strncpy 097F                 end_of_initialization 0046  
                        set_time@key 002A                           ??_init_i2c 0031  
                         ??_init_adc 0073                         _eeprom_write 17D3  
                         ??_read_adc 0075               ?_ext_eeprom_24C02_read 0070  
                        ?_clcd_print 0021                          ?_clcd_putch 0028  
                    ___lldiv@divisor 0020                          ?_clcd_write 0073  
                    ___lldiv@counter 002C                           ??_set_time 002B  
                         ??_view_log 002B                         __pstringtext 0600  
                       _display_time 0B3E                        i2c_write@data 0075  
                      clcd_print@str 0021                      ??_log_car_event 0028  
                       login@npasswd 00B8                         login@spasswd 00B4  
                     __end_of___bmul 169A                        __pidataCOMMON 05FF  
                        view_log@add 0037                          view_log@key 0038  
                     __end_of_strcpy 177E                  start_initialization 0011  
                        ?_login_menu 002A                            _i2c_start 1600  
                        __end_of_isr 0DAD                            _i2c_write 16B3  
     ext_eeprom_24C02_str_write@addr 0027       ext_eeprom_24C02_str_write@data 0024  
                   change_password@i 002F                     change_password@p 0044  
              __end_of_i2c_rep_start 161D                             ??___bmul 0074  
                         init_fetch0 1647                        ??_init_ds1307 0076  
                        __pdataBANK0 0059                          __pdataBANK1 00BC  
                      ??_read_ds1307 0076                             ??_strcpy 0075  
                      ??_init_config 0076                        ??_init_timer2 0073  
                        __pbssCOMMON 0076                            ___latbits 0002  
                      __pcstackBANK0 0020                        __pcstackBANK1 00D5  
                         ?_i2c_start 0070                           ?_i2c_write 0073  
            display_dash_board@event 0030              display_dash_board@speed 002C  
                   eeprom_write@addr 0075                     ___lwdiv@dividend 0024  
                          _clear_log 0909          ?_ext_eeprom_24C02_str_write 0024  
                           ?___awdiv 0020                             ?___awmod 0020  
                           ?___lldiv 0020                             ?___lwdiv 0022  
                          _clock_reg 003F                            __pstrings 1000  
__end_of_ext_eeprom_24C02_byte_write 1759          _ext_eeprom_24C02_byte_write 1735  
                 set_time@reset_flag 002C                  __end_of_init_ds1307 0800  
                read_adc@adc_reg_val 0020                  __end_of_read_ds1307 08A2  
                   ___lwdiv@quotient 0027                            _init_clcd 161D  
                __end_of_init_config 17D3                             ?_strncmp 0073  
                           ?_strncpy 0073                            _log_event 0A8F  
                      ?_write_ds1307 0022              ??_ext_eeprom_24C02_read 0076  
                __end_of_init_timer2 080D             ?_init_display_controller 0070  
                  interrupt_function 0004                            clear_ram0 15F8  
                        strncpy@from 0073                           set_time@fp 0059  
                        strncpy@size 0074                         ??_clcd_print 0076  
                       ??_clcd_putch 0076                         ??_clcd_write 0074  
                         ?_clear_log 0070                            main@F1007 00D2  
                          main@F1009 00BC                          __stringbase 1012  
                          main@event 00E2                            main@speed 00E8  
                        ??_i2c_start 0073                   __end_of_clcd_print 086F  
                        ??_i2c_write 0020                   __end_of_clcd_putch 1683  
                 __end_of_clcd_write 1711                           ?_init_clcd 0070  
                     ??_write_ds1307 0076                           ?_log_event 002A  
                _init_digital_keypad 15EB                             _i2c_read 16CE  
                           _i2c_stop 1609                           _EECON1bits 018C  
                          isr@count1 0076                  change_password@once 0042  
               ?_init_digital_keypad 0070                          _init_ds1307 07EB  
                 __end_of__stringtab 1012                          _read_ds1307 086F  
                        _init_config 17A8                         ??_login_menu 002B  
                        _init_timer2 0800                      ___lwdiv@divisor 0022  
                    ___lwdiv@counter 0026                             __ptext10 097F  
                           __ptext11 0942                             __ptext20 1711  
                           __ptext12 080D                             __ptext21 15EB  
                           __ptext13 1735                             __ptext30 1612  
                           __ptext22 161D                             __ptext14 1683  
                           __ptext31 1609                             __ptext23 0B9D  
                           __ptext15 17A8                             __ptext40 17D3  
                           __ptext32 1600                             __ptext24 15F1  
                           __ptext16 0800                             __ptext41 1635  
                           __ptext33 16CE                             __ptext25 0C00  
                           __ptext17 08D5                             __ptext42 166E  
                           __ptext34 1628                             __ptext26 0B3E  
                           __ptext18 0C64                             __ptext43 083C  
                           __ptext35 0AE3                             __ptext27 0A42  
                           __ptext19 07EB                             __ptext44 16EF  
                           __ptext36 0CCC                             __ptext28 086F  
                           __ptext45 09FC                             __ptext37 0909  
                           __ptext29 16B3                             __ptext46 0D35  
                           __ptext38 04B9                             __ptext39 09BC  
    ext_eeprom_24C02_byte_write@addr 0023      ext_eeprom_24C02_byte_write@data 0022  
             display_time@reset_flag 002A                             _get_time 0A42  
                         strcpy@from 0073                             _init_i2c 08D5  
                           _init_adc 15F1                             _read_adc 165A  
            read_digital_keypad@mode 0074              read_digital_keypad@once 007A  
                         strncmp@len 0074                __end_of_log_car_event 097F  
                        ??_clear_log 0024                    ??_change_password 002B  
                      ?_clear_screen 0070                             _set_time 0DAD  
                 __end_of_login_menu 07EB                             _view_log 0EC9  
              ??_init_digital_keypad 0073                             main@gear 00D5  
                          view_log@i 0039                           _INTCONbits 000B  
                           isr@count 0078                             init_ram0 164B  
                        ??_init_clcd 0076                             login@key 002A  
                        ??_log_event 002B                             intlevel1 0000  
                   ___lldiv@dividend 0024                            strncmp@s1 0022  
                          strncmp@s2 0073                            stringcode 100A  
                     ??_clear_screen 0021                            strncpy@cp 0022  
                          strncpy@to 0021                 __end_of_write_ds1307 1735  
                _read_digital_keypad 177E                     ___lldiv@quotient 0028  
                           strcpy@cp 0020                             strcpy@to 0021  
                           stringtab 1000                          _return_time 004C  
               ?_read_digital_keypad 0070                     write_ds1307@addr 0023  
                   write_ds1307@data 0022                        ?_eeprom_write 0073  
                         _STATUSbits 0003        __end_of_ext_eeprom_24C02_read 08D5  
